
main.o:     file format elf64-littleriscv


Disassembly of section .text:

00000000000100b0 <main>:
   100b0:	ff010113          	addi	sp,sp,-16
   100b4:	00113423          	sd	ra,8(sp)
   100b8:	21c000ef          	jal	ra,102d4 <test_state_machine>
   100bc:	00813083          	ld	ra,8(sp)
   100c0:	00000513          	li	a0,0
   100c4:	01010113          	addi	sp,sp,16
   100c8:	00008067          	ret

00000000000100cc <register_fini>:
   100cc:	ffff0797          	auipc	a5,0xffff0
   100d0:	f3478793          	addi	a5,a5,-204 # 0 <main-0x100b0>
   100d4:	00078863          	beqz	a5,100e4 <register_fini+0x18>
   100d8:	00000517          	auipc	a0,0x0
   100dc:	35050513          	addi	a0,a0,848 # 10428 <__libc_fini_array>
   100e0:	3000006f          	j	103e0 <atexit>
   100e4:	00008067          	ret

00000000000100e8 <_start>:
   100e8:	00005197          	auipc	gp,0x5
   100ec:	25018193          	addi	gp,gp,592 # 15338 <__global_pointer$>
   100f0:	77818513          	addi	a0,gp,1912 # 15ab0 <_edata>
   100f4:	00006617          	auipc	a2,0x6
   100f8:	a4460613          	addi	a2,a2,-1468 # 15b38 <__BSS_END__>
   100fc:	40a60633          	sub	a2,a2,a0
   10100:	00000593          	li	a1,0
   10104:	414000ef          	jal	ra,10518 <memset>
   10108:	00000517          	auipc	a0,0x0
   1010c:	32050513          	addi	a0,a0,800 # 10428 <__libc_fini_array>
   10110:	2d0000ef          	jal	ra,103e0 <atexit>
   10114:	370000ef          	jal	ra,10484 <__libc_init_array>
   10118:	00012503          	lw	a0,0(sp)
   1011c:	00810593          	addi	a1,sp,8
   10120:	00000613          	li	a2,0
   10124:	f8dff0ef          	jal	ra,100b0 <main>
   10128:	2cc0006f          	j	103f4 <exit>

000000000001012c <__do_global_dtors_aux>:
   1012c:	7981c783          	lbu	a5,1944(gp) # 15ad0 <completed.5468>
   10130:	04079463          	bnez	a5,10178 <__do_global_dtors_aux+0x4c>
   10134:	ffff0797          	auipc	a5,0xffff0
   10138:	ecc78793          	addi	a5,a5,-308 # 0 <main-0x100b0>
   1013c:	02078863          	beqz	a5,1016c <__do_global_dtors_aux+0x40>
   10140:	ff010113          	addi	sp,sp,-16
   10144:	00005517          	auipc	a0,0x5
   10148:	9b450513          	addi	a0,a0,-1612 # 14af8 <__FRAME_END__>
   1014c:	00113423          	sd	ra,8(sp)
   10150:	00000097          	auipc	ra,0x0
   10154:	000000e7          	jalr	zero # 0 <main-0x100b0>
   10158:	00813083          	ld	ra,8(sp)
   1015c:	00100793          	li	a5,1
   10160:	78f18c23          	sb	a5,1944(gp) # 15ad0 <completed.5468>
   10164:	01010113          	addi	sp,sp,16
   10168:	00008067          	ret
   1016c:	00100793          	li	a5,1
   10170:	78f18c23          	sb	a5,1944(gp) # 15ad0 <completed.5468>
   10174:	00008067          	ret
   10178:	00008067          	ret

000000000001017c <frame_dummy>:
   1017c:	ffff0797          	auipc	a5,0xffff0
   10180:	e8478793          	addi	a5,a5,-380 # 0 <main-0x100b0>
   10184:	00078c63          	beqz	a5,1019c <frame_dummy+0x20>
   10188:	7a018593          	addi	a1,gp,1952 # 15ad8 <object.5473>
   1018c:	00005517          	auipc	a0,0x5
   10190:	96c50513          	addi	a0,a0,-1684 # 14af8 <__FRAME_END__>
   10194:	00000317          	auipc	t1,0x0
   10198:	00000067          	jr	zero # 0 <main-0x100b0>
   1019c:	00008067          	ret

00000000000101a0 <state_machine>:
   101a0:	00800793          	li	a5,8
   101a4:	06a7ea63          	bltu	a5,a0,10218 <state_machine+0x78>
   101a8:	00014737          	lui	a4,0x14
   101ac:	00251793          	slli	a5,a0,0x2
   101b0:	a2070713          	addi	a4,a4,-1504 # 13a20 <__moddi3+0x3c>
   101b4:	00e787b3          	add	a5,a5,a4
   101b8:	0007a783          	lw	a5,0(a5)
   101bc:	00078067          	jr	a5
   101c0:	00300513          	li	a0,3
   101c4:	00008067          	ret
   101c8:	00400513          	li	a0,4
   101cc:	00008067          	ret
   101d0:	00500513          	li	a0,5
   101d4:	00008067          	ret
   101d8:	00600513          	li	a0,6
   101dc:	00008067          	ret
   101e0:	00700513          	li	a0,7
   101e4:	00008067          	ret
   101e8:	00800513          	li	a0,8
   101ec:	00008067          	ret
   101f0:	00b035b3          	snez	a1,a1
   101f4:	40b005b3          	neg	a1,a1
   101f8:	00b57533          	and	a0,a0,a1
   101fc:	00008067          	ret
   10200:	0015b513          	seqz	a0,a1
   10204:	00008067          	ret
   10208:	00100793          	li	a5,1
   1020c:	faf59ce3          	bne	a1,a5,101c4 <state_machine+0x24>
   10210:	00200513          	li	a0,2
   10214:	00008067          	ret
   10218:	00000513          	li	a0,0
   1021c:	00008067          	ret

0000000000010220 <detect_load>:
   10220:	00100513          	li	a0,1
   10224:	00008067          	ret

0000000000010228 <select_water_level>:
   10228:	00100513          	li	a0,1
   1022c:	00008067          	ret

0000000000010230 <select_temperature>:
   10230:	00100513          	li	a0,1
   10234:	00008067          	ret

0000000000010238 <run_timer>:
   10238:	00008067          	ret

000000000001023c <print_state>:
   1023c:	00800793          	li	a5,8
   10240:	08a7e463          	bltu	a5,a0,102c8 <print_state+0x8c>
   10244:	000147b7          	lui	a5,0x14
   10248:	a4478793          	addi	a5,a5,-1468 # 13a44 <__moddi3+0x60>
   1024c:	00251513          	slli	a0,a0,0x2
   10250:	00f50533          	add	a0,a0,a5
   10254:	00052783          	lw	a5,0(a0)
   10258:	00078067          	jr	a5
   1025c:	00014537          	lui	a0,0x14
   10260:	ad050513          	addi	a0,a0,-1328 # 13ad0 <__moddi3+0xec>
   10264:	4600006f          	j	106c4 <puts>
   10268:	00014537          	lui	a0,0x14
   1026c:	ad850513          	addi	a0,a0,-1320 # 13ad8 <__moddi3+0xf4>
   10270:	4540006f          	j	106c4 <puts>
   10274:	00014537          	lui	a0,0x14
   10278:	a6850513          	addi	a0,a0,-1432 # 13a68 <__moddi3+0x84>
   1027c:	4480006f          	j	106c4 <puts>
   10280:	00014537          	lui	a0,0x14
   10284:	a7050513          	addi	a0,a0,-1424 # 13a70 <__moddi3+0x8c>
   10288:	43c0006f          	j	106c4 <puts>
   1028c:	00014537          	lui	a0,0x14
   10290:	a7850513          	addi	a0,a0,-1416 # 13a78 <__moddi3+0x94>
   10294:	4300006f          	j	106c4 <puts>
   10298:	00014537          	lui	a0,0x14
   1029c:	a8850513          	addi	a0,a0,-1400 # 13a88 <__moddi3+0xa4>
   102a0:	4240006f          	j	106c4 <puts>
   102a4:	00014537          	lui	a0,0x14
   102a8:	aa050513          	addi	a0,a0,-1376 # 13aa0 <__moddi3+0xbc>
   102ac:	4180006f          	j	106c4 <puts>
   102b0:	00014537          	lui	a0,0x14
   102b4:	ab850513          	addi	a0,a0,-1352 # 13ab8 <__moddi3+0xd4>
   102b8:	40c0006f          	j	106c4 <puts>
   102bc:	00014537          	lui	a0,0x14
   102c0:	ac050513          	addi	a0,a0,-1344 # 13ac0 <__moddi3+0xdc>
   102c4:	4000006f          	j	106c4 <puts>
   102c8:	00014537          	lui	a0,0x14
   102cc:	ae050513          	addi	a0,a0,-1312 # 13ae0 <__moddi3+0xfc>
   102d0:	3f40006f          	j	106c4 <puts>

00000000000102d4 <test_state_machine>:
   102d4:	00300713          	li	a4,3
   102d8:	00500793          	li	a5,5
   102dc:	00100693          	li	a3,1
   102e0:	02071713          	slli	a4,a4,0x20
   102e4:	02079793          	slli	a5,a5,0x20
   102e8:	fb010113          	addi	sp,sp,-80
   102ec:	02069693          	slli	a3,a3,0x20
   102f0:	00270713          	addi	a4,a4,2
   102f4:	00478793          	addi	a5,a5,4
   102f8:	04813023          	sd	s0,64(sp)
   102fc:	02913c23          	sd	s1,56(sp)
   10300:	03213823          	sd	s2,48(sp)
   10304:	03313423          	sd	s3,40(sp)
   10308:	03413023          	sd	s4,32(sp)
   1030c:	04113423          	sd	ra,72(sp)
   10310:	00d13423          	sd	a3,8(sp)
   10314:	00e13823          	sd	a4,16(sp)
   10318:	00f13c23          	sd	a5,24(sp)
   1031c:	00810493          	addi	s1,sp,8
   10320:	00000413          	li	s0,0
   10324:	00014937          	lui	s2,0x14
   10328:	00600a13          	li	s4,6
   1032c:	00100993          	li	s3,1
   10330:	0100006f          	j	10340 <test_state_machine+0x6c>
   10334:	0004a703          	lw	a4,0(s1)
   10338:	03370863          	beq	a4,s3,10368 <test_state_machine+0x94>
   1033c:	00078413          	mv	s0,a5
   10340:	a7090513          	addi	a0,s2,-1424 # 13a70 <__moddi3+0x8c>
   10344:	380000ef          	jal	ra,106c4 <puts>
   10348:	0014079b          	addiw	a5,s0,1
   1034c:	00448493          	addi	s1,s1,4
   10350:	ff4792e3          	bne	a5,s4,10334 <test_state_machine+0x60>
   10354:	a7090513          	addi	a0,s2,-1424
   10358:	36c000ef          	jal	ra,106c4 <puts>
   1035c:	a7090513          	addi	a0,s2,-1424
   10360:	364000ef          	jal	ra,106c4 <puts>
   10364:	ff1ff06f          	j	10354 <test_state_machine+0x80>
   10368:	00014537          	lui	a0,0x14
   1036c:	a7850513          	addi	a0,a0,-1416 # 13a78 <__moddi3+0x94>
   10370:	354000ef          	jal	ra,106c4 <puts>
   10374:	00014537          	lui	a0,0x14
   10378:	a8850513          	addi	a0,a0,-1400 # 13a88 <__moddi3+0xa4>
   1037c:	348000ef          	jal	ra,106c4 <puts>
   10380:	00014537          	lui	a0,0x14
   10384:	aa050513          	addi	a0,a0,-1376 # 13aa0 <__moddi3+0xbc>
   10388:	33c000ef          	jal	ra,106c4 <puts>
   1038c:	00014537          	lui	a0,0x14
   10390:	ab850513          	addi	a0,a0,-1352 # 13ab8 <__moddi3+0xd4>
   10394:	330000ef          	jal	ra,106c4 <puts>
   10398:	00014537          	lui	a0,0x14
   1039c:	ac050513          	addi	a0,a0,-1344 # 13ac0 <__moddi3+0xdc>
   103a0:	324000ef          	jal	ra,106c4 <puts>
   103a4:	00014537          	lui	a0,0x14
   103a8:	ad050513          	addi	a0,a0,-1328 # 13ad0 <__moddi3+0xec>
   103ac:	318000ef          	jal	ra,106c4 <puts>
   103b0:	00014537          	lui	a0,0x14
   103b4:	ad850513          	addi	a0,a0,-1320 # 13ad8 <__moddi3+0xf4>
   103b8:	30c000ef          	jal	ra,106c4 <puts>
   103bc:	04013403          	ld	s0,64(sp)
   103c0:	04813083          	ld	ra,72(sp)
   103c4:	03813483          	ld	s1,56(sp)
   103c8:	03013903          	ld	s2,48(sp)
   103cc:	02813983          	ld	s3,40(sp)
   103d0:	02013a03          	ld	s4,32(sp)
   103d4:	00000513          	li	a0,0
   103d8:	05010113          	addi	sp,sp,80
   103dc:	e61ff06f          	j	1023c <print_state>

00000000000103e0 <atexit>:
   103e0:	00050593          	mv	a1,a0
   103e4:	00000693          	li	a3,0
   103e8:	00000613          	li	a2,0
   103ec:	00000513          	li	a0,0
   103f0:	3b40006f          	j	107a4 <__register_exitproc>

00000000000103f4 <exit>:
   103f4:	ff010113          	addi	sp,sp,-16
   103f8:	00000593          	li	a1,0
   103fc:	00813023          	sd	s0,0(sp)
   10400:	00113423          	sd	ra,8(sp)
   10404:	00050413          	mv	s0,a0
   10408:	448000ef          	jal	ra,10850 <__call_exitprocs>
   1040c:	75018793          	addi	a5,gp,1872 # 15a88 <_global_impure_ptr>
   10410:	0007b503          	ld	a0,0(a5)
   10414:	05853783          	ld	a5,88(a0)
   10418:	00078463          	beqz	a5,10420 <exit+0x2c>
   1041c:	000780e7          	jalr	a5
   10420:	00040513          	mv	a0,s0
   10424:	1d8030ef          	jal	ra,135fc <_exit>

0000000000010428 <__libc_fini_array>:
   10428:	fe010113          	addi	sp,sp,-32
   1042c:	00813823          	sd	s0,16(sp)
   10430:	00004797          	auipc	a5,0x4
   10434:	6e878793          	addi	a5,a5,1768 # 14b18 <__fini_array_end>
   10438:	00004417          	auipc	s0,0x4
   1043c:	6d840413          	addi	s0,s0,1752 # 14b10 <__init_array_end>
   10440:	408787b3          	sub	a5,a5,s0
   10444:	00913423          	sd	s1,8(sp)
   10448:	00113c23          	sd	ra,24(sp)
   1044c:	4037d493          	srai	s1,a5,0x3
   10450:	02048063          	beqz	s1,10470 <__libc_fini_array+0x48>
   10454:	ff878793          	addi	a5,a5,-8
   10458:	00878433          	add	s0,a5,s0
   1045c:	00043783          	ld	a5,0(s0)
   10460:	fff48493          	addi	s1,s1,-1
   10464:	ff840413          	addi	s0,s0,-8
   10468:	000780e7          	jalr	a5
   1046c:	fe0498e3          	bnez	s1,1045c <__libc_fini_array+0x34>
   10470:	01813083          	ld	ra,24(sp)
   10474:	01013403          	ld	s0,16(sp)
   10478:	00813483          	ld	s1,8(sp)
   1047c:	02010113          	addi	sp,sp,32
   10480:	00008067          	ret

0000000000010484 <__libc_init_array>:
   10484:	fe010113          	addi	sp,sp,-32
   10488:	00813823          	sd	s0,16(sp)
   1048c:	01213023          	sd	s2,0(sp)
   10490:	00004417          	auipc	s0,0x4
   10494:	66c40413          	addi	s0,s0,1644 # 14afc <__preinit_array_end>
   10498:	00004917          	auipc	s2,0x4
   1049c:	66490913          	addi	s2,s2,1636 # 14afc <__preinit_array_end>
   104a0:	40890933          	sub	s2,s2,s0
   104a4:	00113c23          	sd	ra,24(sp)
   104a8:	00913423          	sd	s1,8(sp)
   104ac:	40395913          	srai	s2,s2,0x3
   104b0:	00090e63          	beqz	s2,104cc <__libc_init_array+0x48>
   104b4:	00000493          	li	s1,0
   104b8:	00043783          	ld	a5,0(s0)
   104bc:	00148493          	addi	s1,s1,1
   104c0:	00840413          	addi	s0,s0,8
   104c4:	000780e7          	jalr	a5
   104c8:	fe9918e3          	bne	s2,s1,104b8 <__libc_init_array+0x34>
   104cc:	00004417          	auipc	s0,0x4
   104d0:	63440413          	addi	s0,s0,1588 # 14b00 <__init_array_start>
   104d4:	00004917          	auipc	s2,0x4
   104d8:	63c90913          	addi	s2,s2,1596 # 14b10 <__init_array_end>
   104dc:	40890933          	sub	s2,s2,s0
   104e0:	40395913          	srai	s2,s2,0x3
   104e4:	00090e63          	beqz	s2,10500 <__libc_init_array+0x7c>
   104e8:	00000493          	li	s1,0
   104ec:	00043783          	ld	a5,0(s0)
   104f0:	00148493          	addi	s1,s1,1
   104f4:	00840413          	addi	s0,s0,8
   104f8:	000780e7          	jalr	a5
   104fc:	fe9918e3          	bne	s2,s1,104ec <__libc_init_array+0x68>
   10500:	01813083          	ld	ra,24(sp)
   10504:	01013403          	ld	s0,16(sp)
   10508:	00813483          	ld	s1,8(sp)
   1050c:	00013903          	ld	s2,0(sp)
   10510:	02010113          	addi	sp,sp,32
   10514:	00008067          	ret

0000000000010518 <memset>:
   10518:	00f00313          	li	t1,15
   1051c:	00050713          	mv	a4,a0
   10520:	02c37a63          	bgeu	t1,a2,10554 <memset+0x3c>
   10524:	00f77793          	andi	a5,a4,15
   10528:	0a079063          	bnez	a5,105c8 <memset+0xb0>
   1052c:	06059e63          	bnez	a1,105a8 <memset+0x90>
   10530:	ff067693          	andi	a3,a2,-16
   10534:	00f67613          	andi	a2,a2,15
   10538:	00e686b3          	add	a3,a3,a4
   1053c:	00b73023          	sd	a1,0(a4)
   10540:	00b73423          	sd	a1,8(a4)
   10544:	01070713          	addi	a4,a4,16
   10548:	fed76ae3          	bltu	a4,a3,1053c <memset+0x24>
   1054c:	00061463          	bnez	a2,10554 <memset+0x3c>
   10550:	00008067          	ret
   10554:	40c306b3          	sub	a3,t1,a2
   10558:	00269693          	slli	a3,a3,0x2
   1055c:	00000297          	auipc	t0,0x0
   10560:	005686b3          	add	a3,a3,t0
   10564:	00c68067          	jr	12(a3)
   10568:	00b70723          	sb	a1,14(a4)
   1056c:	00b706a3          	sb	a1,13(a4)
   10570:	00b70623          	sb	a1,12(a4)
   10574:	00b705a3          	sb	a1,11(a4)
   10578:	00b70523          	sb	a1,10(a4)
   1057c:	00b704a3          	sb	a1,9(a4)
   10580:	00b70423          	sb	a1,8(a4)
   10584:	00b703a3          	sb	a1,7(a4)
   10588:	00b70323          	sb	a1,6(a4)
   1058c:	00b702a3          	sb	a1,5(a4)
   10590:	00b70223          	sb	a1,4(a4)
   10594:	00b701a3          	sb	a1,3(a4)
   10598:	00b70123          	sb	a1,2(a4)
   1059c:	00b700a3          	sb	a1,1(a4)
   105a0:	00b70023          	sb	a1,0(a4)
   105a4:	00008067          	ret
   105a8:	0ff5f593          	andi	a1,a1,255
   105ac:	00859693          	slli	a3,a1,0x8
   105b0:	00d5e5b3          	or	a1,a1,a3
   105b4:	01059693          	slli	a3,a1,0x10
   105b8:	00d5e5b3          	or	a1,a1,a3
   105bc:	02059693          	slli	a3,a1,0x20
   105c0:	00d5e5b3          	or	a1,a1,a3
   105c4:	f6dff06f          	j	10530 <memset+0x18>
   105c8:	00279693          	slli	a3,a5,0x2
   105cc:	00000297          	auipc	t0,0x0
   105d0:	005686b3          	add	a3,a3,t0
   105d4:	00008293          	mv	t0,ra
   105d8:	f98680e7          	jalr	-104(a3)
   105dc:	00028093          	mv	ra,t0
   105e0:	ff078793          	addi	a5,a5,-16
   105e4:	40f70733          	sub	a4,a4,a5
   105e8:	00f60633          	add	a2,a2,a5
   105ec:	f6c374e3          	bgeu	t1,a2,10554 <memset+0x3c>
   105f0:	f3dff06f          	j	1052c <memset+0x14>

00000000000105f4 <_puts_r>:
   105f4:	f9010113          	addi	sp,sp,-112
   105f8:	06813023          	sd	s0,96(sp)
   105fc:	00050413          	mv	s0,a0
   10600:	00058513          	mv	a0,a1
   10604:	04913c23          	sd	s1,88(sp)
   10608:	06113423          	sd	ra,104(sp)
   1060c:	00058493          	mv	s1,a1
   10610:	0c4000ef          	jal	ra,106d4 <strlen>
   10614:	00150713          	addi	a4,a0,1
   10618:	00003697          	auipc	a3,0x3
   1061c:	4d868693          	addi	a3,a3,1240 # 13af0 <__moddi3+0x10c>
   10620:	02e13423          	sd	a4,40(sp)
   10624:	05042783          	lw	a5,80(s0)
   10628:	03010713          	addi	a4,sp,48
   1062c:	04d13023          	sd	a3,64(sp)
   10630:	00e13c23          	sd	a4,24(sp)
   10634:	00100693          	li	a3,1
   10638:	00200713          	li	a4,2
   1063c:	02913823          	sd	s1,48(sp)
   10640:	02a13c23          	sd	a0,56(sp)
   10644:	04d13423          	sd	a3,72(sp)
   10648:	02e12023          	sw	a4,32(sp)
   1064c:	01043583          	ld	a1,16(s0)
   10650:	04078c63          	beqz	a5,106a8 <_puts_r+0xb4>
   10654:	01059783          	lh	a5,16(a1)
   10658:	03279713          	slli	a4,a5,0x32
   1065c:	02074263          	bltz	a4,10680 <_puts_r+0x8c>
   10660:	0ac5a703          	lw	a4,172(a1)
   10664:	000026b7          	lui	a3,0x2
   10668:	00d7e7b3          	or	a5,a5,a3
   1066c:	ffffe6b7          	lui	a3,0xffffe
   10670:	fff68693          	addi	a3,a3,-1 # ffffffffffffdfff <__BSS_END__+0xfffffffffffe84c7>
   10674:	00d77733          	and	a4,a4,a3
   10678:	00f59823          	sh	a5,16(a1)
   1067c:	0ae5a623          	sw	a4,172(a1)
   10680:	01810613          	addi	a2,sp,24
   10684:	00040513          	mv	a0,s0
   10688:	654000ef          	jal	ra,10cdc <__sfvwrite_r>
   1068c:	02051863          	bnez	a0,106bc <_puts_r+0xc8>
   10690:	00a00513          	li	a0,10
   10694:	06813083          	ld	ra,104(sp)
   10698:	06013403          	ld	s0,96(sp)
   1069c:	05813483          	ld	s1,88(sp)
   106a0:	07010113          	addi	sp,sp,112
   106a4:	00008067          	ret
   106a8:	00040513          	mv	a0,s0
   106ac:	00b13423          	sd	a1,8(sp)
   106b0:	5e4000ef          	jal	ra,10c94 <__sinit>
   106b4:	00813583          	ld	a1,8(sp)
   106b8:	f9dff06f          	j	10654 <_puts_r+0x60>
   106bc:	fff00513          	li	a0,-1
   106c0:	fd5ff06f          	j	10694 <_puts_r+0xa0>

00000000000106c4 <puts>:
   106c4:	76018793          	addi	a5,gp,1888 # 15a98 <_impure_ptr>
   106c8:	00050593          	mv	a1,a0
   106cc:	0007b503          	ld	a0,0(a5)
   106d0:	f25ff06f          	j	105f4 <_puts_r>

00000000000106d4 <strlen>:
   106d4:	00757793          	andi	a5,a0,7
   106d8:	00050713          	mv	a4,a0
   106dc:	06079e63          	bnez	a5,10758 <strlen+0x84>
   106e0:	00005797          	auipc	a5,0x5
   106e4:	39078793          	addi	a5,a5,912 # 15a70 <__SDATA_BEGIN__>
   106e8:	0007b683          	ld	a3,0(a5)
   106ec:	fff00593          	li	a1,-1
   106f0:	00870713          	addi	a4,a4,8
   106f4:	ff873603          	ld	a2,-8(a4)
   106f8:	00d677b3          	and	a5,a2,a3
   106fc:	00d787b3          	add	a5,a5,a3
   10700:	00c7e7b3          	or	a5,a5,a2
   10704:	00d7e7b3          	or	a5,a5,a3
   10708:	feb784e3          	beq	a5,a1,106f0 <strlen+0x1c>
   1070c:	ff874783          	lbu	a5,-8(a4)
   10710:	40a706b3          	sub	a3,a4,a0
   10714:	06078463          	beqz	a5,1077c <strlen+0xa8>
   10718:	ff974783          	lbu	a5,-7(a4)
   1071c:	04078c63          	beqz	a5,10774 <strlen+0xa0>
   10720:	ffa74783          	lbu	a5,-6(a4)
   10724:	06078463          	beqz	a5,1078c <strlen+0xb8>
   10728:	ffb74783          	lbu	a5,-5(a4)
   1072c:	04078c63          	beqz	a5,10784 <strlen+0xb0>
   10730:	ffc74603          	lbu	a2,-4(a4)
   10734:	ffd74583          	lbu	a1,-3(a4)
   10738:	ffe74783          	lbu	a5,-2(a4)
   1073c:	04060c63          	beqz	a2,10794 <strlen+0xc0>
   10740:	04058e63          	beqz	a1,1079c <strlen+0xc8>
   10744:	00f03533          	snez	a0,a5
   10748:	00d50533          	add	a0,a0,a3
   1074c:	ffe50513          	addi	a0,a0,-2
   10750:	00008067          	ret
   10754:	f80686e3          	beqz	a3,106e0 <strlen+0xc>
   10758:	00074783          	lbu	a5,0(a4)
   1075c:	00170713          	addi	a4,a4,1
   10760:	00777693          	andi	a3,a4,7
   10764:	fe0798e3          	bnez	a5,10754 <strlen+0x80>
   10768:	40a70733          	sub	a4,a4,a0
   1076c:	fff70513          	addi	a0,a4,-1
   10770:	00008067          	ret
   10774:	ff968513          	addi	a0,a3,-7
   10778:	00008067          	ret
   1077c:	ff868513          	addi	a0,a3,-8
   10780:	00008067          	ret
   10784:	ffb68513          	addi	a0,a3,-5
   10788:	00008067          	ret
   1078c:	ffa68513          	addi	a0,a3,-6
   10790:	00008067          	ret
   10794:	ffc68513          	addi	a0,a3,-4
   10798:	00008067          	ret
   1079c:	ffd68513          	addi	a0,a3,-3
   107a0:	00008067          	ret

00000000000107a4 <__register_exitproc>:
   107a4:	75018793          	addi	a5,gp,1872 # 15a88 <_global_impure_ptr>
   107a8:	0007b703          	ld	a4,0(a5)
   107ac:	1f873783          	ld	a5,504(a4)
   107b0:	06078063          	beqz	a5,10810 <__register_exitproc+0x6c>
   107b4:	0087a703          	lw	a4,8(a5)
   107b8:	01f00813          	li	a6,31
   107bc:	08e84663          	blt	a6,a4,10848 <__register_exitproc+0xa4>
   107c0:	02050863          	beqz	a0,107f0 <__register_exitproc+0x4c>
   107c4:	00371813          	slli	a6,a4,0x3
   107c8:	01078833          	add	a6,a5,a6
   107cc:	10c83823          	sd	a2,272(a6)
   107d0:	3107a883          	lw	a7,784(a5)
   107d4:	00100613          	li	a2,1
   107d8:	00e6163b          	sllw	a2,a2,a4
   107dc:	00c8e8b3          	or	a7,a7,a2
   107e0:	3117a823          	sw	a7,784(a5)
   107e4:	20d83823          	sd	a3,528(a6)
   107e8:	00200693          	li	a3,2
   107ec:	02d50863          	beq	a0,a3,1081c <__register_exitproc+0x78>
   107f0:	00270693          	addi	a3,a4,2
   107f4:	00369693          	slli	a3,a3,0x3
   107f8:	0017071b          	addiw	a4,a4,1
   107fc:	00e7a423          	sw	a4,8(a5)
   10800:	00d787b3          	add	a5,a5,a3
   10804:	00b7b023          	sd	a1,0(a5)
   10808:	00000513          	li	a0,0
   1080c:	00008067          	ret
   10810:	20070793          	addi	a5,a4,512
   10814:	1ef73c23          	sd	a5,504(a4)
   10818:	f9dff06f          	j	107b4 <__register_exitproc+0x10>
   1081c:	3147a683          	lw	a3,788(a5)
   10820:	00000513          	li	a0,0
   10824:	00c6e633          	or	a2,a3,a2
   10828:	00270693          	addi	a3,a4,2
   1082c:	00369693          	slli	a3,a3,0x3
   10830:	0017071b          	addiw	a4,a4,1
   10834:	30c7aa23          	sw	a2,788(a5)
   10838:	00e7a423          	sw	a4,8(a5)
   1083c:	00d787b3          	add	a5,a5,a3
   10840:	00b7b023          	sd	a1,0(a5)
   10844:	00008067          	ret
   10848:	fff00513          	li	a0,-1
   1084c:	00008067          	ret

0000000000010850 <__call_exitprocs>:
   10850:	fb010113          	addi	sp,sp,-80
   10854:	75018793          	addi	a5,gp,1872 # 15a88 <_global_impure_ptr>
   10858:	01813023          	sd	s8,0(sp)
   1085c:	0007bc03          	ld	s8,0(a5)
   10860:	03313423          	sd	s3,40(sp)
   10864:	03413023          	sd	s4,32(sp)
   10868:	01513c23          	sd	s5,24(sp)
   1086c:	01613823          	sd	s6,16(sp)
   10870:	04113423          	sd	ra,72(sp)
   10874:	04813023          	sd	s0,64(sp)
   10878:	02913c23          	sd	s1,56(sp)
   1087c:	03213823          	sd	s2,48(sp)
   10880:	01713423          	sd	s7,8(sp)
   10884:	00050a93          	mv	s5,a0
   10888:	00058b13          	mv	s6,a1
   1088c:	00100a13          	li	s4,1
   10890:	fff00993          	li	s3,-1
   10894:	1f8c3903          	ld	s2,504(s8)
   10898:	02090863          	beqz	s2,108c8 <__call_exitprocs+0x78>
   1089c:	00892483          	lw	s1,8(s2)
   108a0:	fff4841b          	addiw	s0,s1,-1
   108a4:	02044263          	bltz	s0,108c8 <__call_exitprocs+0x78>
   108a8:	00349493          	slli	s1,s1,0x3
   108ac:	009904b3          	add	s1,s2,s1
   108b0:	040b0463          	beqz	s6,108f8 <__call_exitprocs+0xa8>
   108b4:	2084b783          	ld	a5,520(s1)
   108b8:	05678063          	beq	a5,s6,108f8 <__call_exitprocs+0xa8>
   108bc:	fff4041b          	addiw	s0,s0,-1
   108c0:	ff848493          	addi	s1,s1,-8
   108c4:	ff3416e3          	bne	s0,s3,108b0 <__call_exitprocs+0x60>
   108c8:	04813083          	ld	ra,72(sp)
   108cc:	04013403          	ld	s0,64(sp)
   108d0:	03813483          	ld	s1,56(sp)
   108d4:	03013903          	ld	s2,48(sp)
   108d8:	02813983          	ld	s3,40(sp)
   108dc:	02013a03          	ld	s4,32(sp)
   108e0:	01813a83          	ld	s5,24(sp)
   108e4:	01013b03          	ld	s6,16(sp)
   108e8:	00813b83          	ld	s7,8(sp)
   108ec:	00013c03          	ld	s8,0(sp)
   108f0:	05010113          	addi	sp,sp,80
   108f4:	00008067          	ret
   108f8:	00892783          	lw	a5,8(s2)
   108fc:	0084b703          	ld	a4,8(s1)
   10900:	fff7879b          	addiw	a5,a5,-1
   10904:	04878e63          	beq	a5,s0,10960 <__call_exitprocs+0x110>
   10908:	0004b423          	sd	zero,8(s1)
   1090c:	fa0708e3          	beqz	a4,108bc <__call_exitprocs+0x6c>
   10910:	31092783          	lw	a5,784(s2)
   10914:	008a16bb          	sllw	a3,s4,s0
   10918:	00892b83          	lw	s7,8(s2)
   1091c:	00d7f7b3          	and	a5,a5,a3
   10920:	0007879b          	sext.w	a5,a5
   10924:	00079e63          	bnez	a5,10940 <__call_exitprocs+0xf0>
   10928:	000700e7          	jalr	a4
   1092c:	00892783          	lw	a5,8(s2)
   10930:	f77792e3          	bne	a5,s7,10894 <__call_exitprocs+0x44>
   10934:	1f8c3783          	ld	a5,504(s8)
   10938:	f92782e3          	beq	a5,s2,108bc <__call_exitprocs+0x6c>
   1093c:	f59ff06f          	j	10894 <__call_exitprocs+0x44>
   10940:	31492783          	lw	a5,788(s2)
   10944:	1084b583          	ld	a1,264(s1)
   10948:	00d7f7b3          	and	a5,a5,a3
   1094c:	0007879b          	sext.w	a5,a5
   10950:	00079c63          	bnez	a5,10968 <__call_exitprocs+0x118>
   10954:	000a8513          	mv	a0,s5
   10958:	000700e7          	jalr	a4
   1095c:	fd1ff06f          	j	1092c <__call_exitprocs+0xdc>
   10960:	00892423          	sw	s0,8(s2)
   10964:	fa9ff06f          	j	1090c <__call_exitprocs+0xbc>
   10968:	00058513          	mv	a0,a1
   1096c:	000700e7          	jalr	a4
   10970:	fbdff06f          	j	1092c <__call_exitprocs+0xdc>

0000000000010974 <__fp_lock>:
   10974:	00000513          	li	a0,0
   10978:	00008067          	ret

000000000001097c <_cleanup_r>:
   1097c:	00002597          	auipc	a1,0x2
   10980:	ed458593          	addi	a1,a1,-300 # 12850 <_fclose_r>
   10984:	0f50006f          	j	11278 <_fwalk_reent>

0000000000010988 <__sinit.part.0>:
   10988:	fc010113          	addi	sp,sp,-64
   1098c:	02113c23          	sd	ra,56(sp)
   10990:	02813823          	sd	s0,48(sp)
   10994:	02913423          	sd	s1,40(sp)
   10998:	03213023          	sd	s2,32(sp)
   1099c:	01313c23          	sd	s3,24(sp)
   109a0:	01413823          	sd	s4,16(sp)
   109a4:	01513423          	sd	s5,8(sp)
   109a8:	01613023          	sd	s6,0(sp)
   109ac:	00853403          	ld	s0,8(a0)
   109b0:	00000717          	auipc	a4,0x0
   109b4:	fcc70713          	addi	a4,a4,-52 # 1097c <_cleanup_r>
   109b8:	04e53c23          	sd	a4,88(a0)
   109bc:	53850793          	addi	a5,a0,1336
   109c0:	00300713          	li	a4,3
   109c4:	52e52423          	sw	a4,1320(a0)
   109c8:	52f53823          	sd	a5,1328(a0)
   109cc:	52053023          	sd	zero,1312(a0)
   109d0:	00400793          	li	a5,4
   109d4:	00050913          	mv	s2,a0
   109d8:	00f42823          	sw	a5,16(s0)
   109dc:	00800613          	li	a2,8
   109e0:	00000593          	li	a1,0
   109e4:	0a042623          	sw	zero,172(s0)
   109e8:	00043023          	sd	zero,0(s0)
   109ec:	00043423          	sd	zero,8(s0)
   109f0:	00043c23          	sd	zero,24(s0)
   109f4:	02042023          	sw	zero,32(s0)
   109f8:	02042423          	sw	zero,40(s0)
   109fc:	0a440513          	addi	a0,s0,164
   10a00:	b19ff0ef          	jal	ra,10518 <memset>
   10a04:	01093483          	ld	s1,16(s2)
   10a08:	00002b17          	auipc	s6,0x2
   10a0c:	ac0b0b13          	addi	s6,s6,-1344 # 124c8 <__sread>
   10a10:	00002a97          	auipc	s5,0x2
   10a14:	b1ca8a93          	addi	s5,s5,-1252 # 1252c <__swrite>
   10a18:	00002a17          	auipc	s4,0x2
   10a1c:	b9ca0a13          	addi	s4,s4,-1124 # 125b4 <__sseek>
   10a20:	00002997          	auipc	s3,0x2
   10a24:	bfc98993          	addi	s3,s3,-1028 # 1261c <__sclose>
   10a28:	000107b7          	lui	a5,0x10
   10a2c:	03643c23          	sd	s6,56(s0)
   10a30:	05543023          	sd	s5,64(s0)
   10a34:	05443423          	sd	s4,72(s0)
   10a38:	05343823          	sd	s3,80(s0)
   10a3c:	02843823          	sd	s0,48(s0)
   10a40:	00978793          	addi	a5,a5,9 # 10009 <main-0xa7>
   10a44:	00f4a823          	sw	a5,16(s1)
   10a48:	00800613          	li	a2,8
   10a4c:	00000593          	li	a1,0
   10a50:	0a04a623          	sw	zero,172(s1)
   10a54:	0004b023          	sd	zero,0(s1)
   10a58:	0004b423          	sd	zero,8(s1)
   10a5c:	0004bc23          	sd	zero,24(s1)
   10a60:	0204a023          	sw	zero,32(s1)
   10a64:	0204a423          	sw	zero,40(s1)
   10a68:	0a448513          	addi	a0,s1,164
   10a6c:	aadff0ef          	jal	ra,10518 <memset>
   10a70:	01893403          	ld	s0,24(s2)
   10a74:	000207b7          	lui	a5,0x20
   10a78:	0364bc23          	sd	s6,56(s1)
   10a7c:	0554b023          	sd	s5,64(s1)
   10a80:	0544b423          	sd	s4,72(s1)
   10a84:	0534b823          	sd	s3,80(s1)
   10a88:	0294b823          	sd	s1,48(s1)
   10a8c:	01278793          	addi	a5,a5,18 # 20012 <__BSS_END__+0xa4da>
   10a90:	00f42823          	sw	a5,16(s0)
   10a94:	0a042623          	sw	zero,172(s0)
   10a98:	00043023          	sd	zero,0(s0)
   10a9c:	00043423          	sd	zero,8(s0)
   10aa0:	00043c23          	sd	zero,24(s0)
   10aa4:	02042023          	sw	zero,32(s0)
   10aa8:	02042423          	sw	zero,40(s0)
   10aac:	0a440513          	addi	a0,s0,164
   10ab0:	00800613          	li	a2,8
   10ab4:	00000593          	li	a1,0
   10ab8:	a61ff0ef          	jal	ra,10518 <memset>
   10abc:	03813083          	ld	ra,56(sp)
   10ac0:	03643c23          	sd	s6,56(s0)
   10ac4:	05543023          	sd	s5,64(s0)
   10ac8:	05443423          	sd	s4,72(s0)
   10acc:	05343823          	sd	s3,80(s0)
   10ad0:	02843823          	sd	s0,48(s0)
   10ad4:	03013403          	ld	s0,48(sp)
   10ad8:	00100793          	li	a5,1
   10adc:	04f92823          	sw	a5,80(s2)
   10ae0:	02813483          	ld	s1,40(sp)
   10ae4:	02013903          	ld	s2,32(sp)
   10ae8:	01813983          	ld	s3,24(sp)
   10aec:	01013a03          	ld	s4,16(sp)
   10af0:	00813a83          	ld	s5,8(sp)
   10af4:	00013b03          	ld	s6,0(sp)
   10af8:	04010113          	addi	sp,sp,64
   10afc:	00008067          	ret

0000000000010b00 <__fp_unlock>:
   10b00:	00000513          	li	a0,0
   10b04:	00008067          	ret

0000000000010b08 <__sfmoreglue>:
   10b08:	fe010113          	addi	sp,sp,-32
   10b0c:	fff5861b          	addiw	a2,a1,-1
   10b10:	00813823          	sd	s0,16(sp)
   10b14:	00161413          	slli	s0,a2,0x1
   10b18:	00c40433          	add	s0,s0,a2
   10b1c:	00241413          	slli	s0,s0,0x2
   10b20:	40c40433          	sub	s0,s0,a2
   10b24:	00441413          	slli	s0,s0,0x4
   10b28:	01213023          	sd	s2,0(sp)
   10b2c:	00058913          	mv	s2,a1
   10b30:	0c840593          	addi	a1,s0,200
   10b34:	00913423          	sd	s1,8(sp)
   10b38:	00113c23          	sd	ra,24(sp)
   10b3c:	021000ef          	jal	ra,1135c <_malloc_r>
   10b40:	00050493          	mv	s1,a0
   10b44:	02050063          	beqz	a0,10b64 <__sfmoreglue+0x5c>
   10b48:	01850513          	addi	a0,a0,24
   10b4c:	0004b023          	sd	zero,0(s1)
   10b50:	0124a423          	sw	s2,8(s1)
   10b54:	00a4b823          	sd	a0,16(s1)
   10b58:	0b040613          	addi	a2,s0,176
   10b5c:	00000593          	li	a1,0
   10b60:	9b9ff0ef          	jal	ra,10518 <memset>
   10b64:	01813083          	ld	ra,24(sp)
   10b68:	01013403          	ld	s0,16(sp)
   10b6c:	00048513          	mv	a0,s1
   10b70:	00013903          	ld	s2,0(sp)
   10b74:	00813483          	ld	s1,8(sp)
   10b78:	02010113          	addi	sp,sp,32
   10b7c:	00008067          	ret

0000000000010b80 <__sfp>:
   10b80:	fd010113          	addi	sp,sp,-48
   10b84:	75018793          	addi	a5,gp,1872 # 15a88 <_global_impure_ptr>
   10b88:	01213823          	sd	s2,16(sp)
   10b8c:	0007b903          	ld	s2,0(a5)
   10b90:	01313423          	sd	s3,8(sp)
   10b94:	02113423          	sd	ra,40(sp)
   10b98:	05092783          	lw	a5,80(s2)
   10b9c:	02813023          	sd	s0,32(sp)
   10ba0:	00913c23          	sd	s1,24(sp)
   10ba4:	00050993          	mv	s3,a0
   10ba8:	0a078463          	beqz	a5,10c50 <__sfp+0xd0>
   10bac:	52090913          	addi	s2,s2,1312
   10bb0:	fff00493          	li	s1,-1
   10bb4:	00892783          	lw	a5,8(s2)
   10bb8:	01093403          	ld	s0,16(s2)
   10bbc:	fff7879b          	addiw	a5,a5,-1
   10bc0:	0007da63          	bgez	a5,10bd4 <__sfp+0x54>
   10bc4:	07c0006f          	j	10c40 <__sfp+0xc0>
   10bc8:	fff7879b          	addiw	a5,a5,-1
   10bcc:	0b040413          	addi	s0,s0,176
   10bd0:	06978863          	beq	a5,s1,10c40 <__sfp+0xc0>
   10bd4:	01041703          	lh	a4,16(s0)
   10bd8:	fe0718e3          	bnez	a4,10bc8 <__sfp+0x48>
   10bdc:	ffff07b7          	lui	a5,0xffff0
   10be0:	00178793          	addi	a5,a5,1 # ffffffffffff0001 <__BSS_END__+0xfffffffffffda4c9>
   10be4:	0a042623          	sw	zero,172(s0)
   10be8:	00043023          	sd	zero,0(s0)
   10bec:	00043423          	sd	zero,8(s0)
   10bf0:	00f42823          	sw	a5,16(s0)
   10bf4:	00043c23          	sd	zero,24(s0)
   10bf8:	02042023          	sw	zero,32(s0)
   10bfc:	02042423          	sw	zero,40(s0)
   10c00:	00800613          	li	a2,8
   10c04:	00000593          	li	a1,0
   10c08:	0a440513          	addi	a0,s0,164
   10c0c:	90dff0ef          	jal	ra,10518 <memset>
   10c10:	04043c23          	sd	zero,88(s0)
   10c14:	06042023          	sw	zero,96(s0)
   10c18:	06043c23          	sd	zero,120(s0)
   10c1c:	08042023          	sw	zero,128(s0)
   10c20:	00040513          	mv	a0,s0
   10c24:	02813083          	ld	ra,40(sp)
   10c28:	02013403          	ld	s0,32(sp)
   10c2c:	01813483          	ld	s1,24(sp)
   10c30:	01013903          	ld	s2,16(sp)
   10c34:	00813983          	ld	s3,8(sp)
   10c38:	03010113          	addi	sp,sp,48
   10c3c:	00008067          	ret
   10c40:	00093403          	ld	s0,0(s2)
   10c44:	00040c63          	beqz	s0,10c5c <__sfp+0xdc>
   10c48:	00040913          	mv	s2,s0
   10c4c:	f69ff06f          	j	10bb4 <__sfp+0x34>
   10c50:	00090513          	mv	a0,s2
   10c54:	d35ff0ef          	jal	ra,10988 <__sinit.part.0>
   10c58:	f55ff06f          	j	10bac <__sfp+0x2c>
   10c5c:	00400593          	li	a1,4
   10c60:	00098513          	mv	a0,s3
   10c64:	ea5ff0ef          	jal	ra,10b08 <__sfmoreglue>
   10c68:	00a93023          	sd	a0,0(s2)
   10c6c:	00050413          	mv	s0,a0
   10c70:	fc051ce3          	bnez	a0,10c48 <__sfp+0xc8>
   10c74:	00c00793          	li	a5,12
   10c78:	00f9a023          	sw	a5,0(s3)
   10c7c:	fa5ff06f          	j	10c20 <__sfp+0xa0>

0000000000010c80 <_cleanup>:
   10c80:	75018793          	addi	a5,gp,1872 # 15a88 <_global_impure_ptr>
   10c84:	0007b503          	ld	a0,0(a5)
   10c88:	00002597          	auipc	a1,0x2
   10c8c:	bc858593          	addi	a1,a1,-1080 # 12850 <_fclose_r>
   10c90:	5e80006f          	j	11278 <_fwalk_reent>

0000000000010c94 <__sinit>:
   10c94:	05052783          	lw	a5,80(a0)
   10c98:	00078463          	beqz	a5,10ca0 <__sinit+0xc>
   10c9c:	00008067          	ret
   10ca0:	ce9ff06f          	j	10988 <__sinit.part.0>

0000000000010ca4 <__sfp_lock_acquire>:
   10ca4:	00008067          	ret

0000000000010ca8 <__sfp_lock_release>:
   10ca8:	00008067          	ret

0000000000010cac <__sinit_lock_acquire>:
   10cac:	00008067          	ret

0000000000010cb0 <__sinit_lock_release>:
   10cb0:	00008067          	ret

0000000000010cb4 <__fp_lock_all>:
   10cb4:	76018793          	addi	a5,gp,1888 # 15a98 <_impure_ptr>
   10cb8:	0007b503          	ld	a0,0(a5)
   10cbc:	00000597          	auipc	a1,0x0
   10cc0:	cb858593          	addi	a1,a1,-840 # 10974 <__fp_lock>
   10cc4:	4e00006f          	j	111a4 <_fwalk>

0000000000010cc8 <__fp_unlock_all>:
   10cc8:	76018793          	addi	a5,gp,1888 # 15a98 <_impure_ptr>
   10ccc:	0007b503          	ld	a0,0(a5)
   10cd0:	00000597          	auipc	a1,0x0
   10cd4:	e3058593          	addi	a1,a1,-464 # 10b00 <__fp_unlock>
   10cd8:	4cc0006f          	j	111a4 <_fwalk>

0000000000010cdc <__sfvwrite_r>:
   10cdc:	01063783          	ld	a5,16(a2)
   10ce0:	28078c63          	beqz	a5,10f78 <__sfvwrite_r+0x29c>
   10ce4:	0105d783          	lhu	a5,16(a1)
   10ce8:	fa010113          	addi	sp,sp,-96
   10cec:	04813823          	sd	s0,80(sp)
   10cf0:	03413823          	sd	s4,48(sp)
   10cf4:	03513423          	sd	s5,40(sp)
   10cf8:	04113c23          	sd	ra,88(sp)
   10cfc:	04913423          	sd	s1,72(sp)
   10d00:	05213023          	sd	s2,64(sp)
   10d04:	03313c23          	sd	s3,56(sp)
   10d08:	03613023          	sd	s6,32(sp)
   10d0c:	01713c23          	sd	s7,24(sp)
   10d10:	01813823          	sd	s8,16(sp)
   10d14:	01913423          	sd	s9,8(sp)
   10d18:	01a13023          	sd	s10,0(sp)
   10d1c:	0087f713          	andi	a4,a5,8
   10d20:	00058413          	mv	s0,a1
   10d24:	00050a93          	mv	s5,a0
   10d28:	00060a13          	mv	s4,a2
   10d2c:	08070c63          	beqz	a4,10dc4 <__sfvwrite_r+0xe8>
   10d30:	0185b703          	ld	a4,24(a1)
   10d34:	08070863          	beqz	a4,10dc4 <__sfvwrite_r+0xe8>
   10d38:	0027f713          	andi	a4,a5,2
   10d3c:	000a3903          	ld	s2,0(s4)
   10d40:	0a070263          	beqz	a4,10de4 <__sfvwrite_r+0x108>
   10d44:	04043703          	ld	a4,64(s0)
   10d48:	03043783          	ld	a5,48(s0)
   10d4c:	80000b37          	lui	s6,0x80000
   10d50:	00000993          	li	s3,0
   10d54:	00000493          	li	s1,0
   10d58:	c00b4b13          	xori	s6,s6,-1024
   10d5c:	00098613          	mv	a2,s3
   10d60:	00078593          	mv	a1,a5
   10d64:	000a8513          	mv	a0,s5
   10d68:	04048663          	beqz	s1,10db4 <__sfvwrite_r+0xd8>
   10d6c:	00048693          	mv	a3,s1
   10d70:	009b7463          	bgeu	s6,s1,10d78 <__sfvwrite_r+0x9c>
   10d74:	000b0693          	mv	a3,s6
   10d78:	0006869b          	sext.w	a3,a3
   10d7c:	000700e7          	jalr	a4
   10d80:	1ea05263          	blez	a0,10f64 <__sfvwrite_r+0x288>
   10d84:	010a3783          	ld	a5,16(s4)
   10d88:	00a989b3          	add	s3,s3,a0
   10d8c:	40a484b3          	sub	s1,s1,a0
   10d90:	40a78533          	sub	a0,a5,a0
   10d94:	00aa3823          	sd	a0,16(s4)
   10d98:	18050063          	beqz	a0,10f18 <__sfvwrite_r+0x23c>
   10d9c:	03043783          	ld	a5,48(s0)
   10da0:	04043703          	ld	a4,64(s0)
   10da4:	00098613          	mv	a2,s3
   10da8:	00078593          	mv	a1,a5
   10dac:	000a8513          	mv	a0,s5
   10db0:	fa049ee3          	bnez	s1,10d6c <__sfvwrite_r+0x90>
   10db4:	00093983          	ld	s3,0(s2)
   10db8:	00893483          	ld	s1,8(s2)
   10dbc:	01090913          	addi	s2,s2,16
   10dc0:	f9dff06f          	j	10d5c <__sfvwrite_r+0x80>
   10dc4:	00040593          	mv	a1,s0
   10dc8:	000a8513          	mv	a0,s5
   10dcc:	0c1010ef          	jal	ra,1268c <__swsetup_r>
   10dd0:	3c051663          	bnez	a0,1119c <__sfvwrite_r+0x4c0>
   10dd4:	01045783          	lhu	a5,16(s0)
   10dd8:	000a3903          	ld	s2,0(s4)
   10ddc:	0027f713          	andi	a4,a5,2
   10de0:	f60712e3          	bnez	a4,10d44 <__sfvwrite_r+0x68>
   10de4:	0017f713          	andi	a4,a5,1
   10de8:	0a071263          	bnez	a4,10e8c <__sfvwrite_r+0x1b0>
   10dec:	00c42483          	lw	s1,12(s0)
   10df0:	00043503          	ld	a0,0(s0)
   10df4:	80000b37          	lui	s6,0x80000
   10df8:	ffeb4b93          	xori	s7,s6,-2
   10dfc:	00000c13          	li	s8,0
   10e00:	00000993          	li	s3,0
   10e04:	fffb4b13          	not	s6,s6
   10e08:	00048c93          	mv	s9,s1
   10e0c:	06098863          	beqz	s3,10e7c <__sfvwrite_r+0x1a0>
   10e10:	2007f713          	andi	a4,a5,512
   10e14:	1c070863          	beqz	a4,10fe4 <__sfvwrite_r+0x308>
   10e18:	00048d13          	mv	s10,s1
   10e1c:	2699f663          	bgeu	s3,s1,11088 <__sfvwrite_r+0x3ac>
   10e20:	00098c93          	mv	s9,s3
   10e24:	00098d13          	mv	s10,s3
   10e28:	000d0613          	mv	a2,s10
   10e2c:	000c0593          	mv	a1,s8
   10e30:	791000ef          	jal	ra,11dc0 <memmove>
   10e34:	00c42783          	lw	a5,12(s0)
   10e38:	00043603          	ld	a2,0(s0)
   10e3c:	00098493          	mv	s1,s3
   10e40:	41978cbb          	subw	s9,a5,s9
   10e44:	01a60633          	add	a2,a2,s10
   10e48:	01942623          	sw	s9,12(s0)
   10e4c:	00c43023          	sd	a2,0(s0)
   10e50:	00000993          	li	s3,0
   10e54:	010a3783          	ld	a5,16(s4)
   10e58:	009c0c33          	add	s8,s8,s1
   10e5c:	409784b3          	sub	s1,a5,s1
   10e60:	009a3823          	sd	s1,16(s4)
   10e64:	0a048a63          	beqz	s1,10f18 <__sfvwrite_r+0x23c>
   10e68:	00c42483          	lw	s1,12(s0)
   10e6c:	00043503          	ld	a0,0(s0)
   10e70:	01045783          	lhu	a5,16(s0)
   10e74:	00048c93          	mv	s9,s1
   10e78:	f8099ce3          	bnez	s3,10e10 <__sfvwrite_r+0x134>
   10e7c:	00093c03          	ld	s8,0(s2)
   10e80:	00893983          	ld	s3,8(s2)
   10e84:	01090913          	addi	s2,s2,16
   10e88:	f81ff06f          	j	10e08 <__sfvwrite_r+0x12c>
   10e8c:	00000993          	li	s3,0
   10e90:	00000513          	li	a0,0
   10e94:	00000c93          	li	s9,0
   10e98:	00000493          	li	s1,0
   10e9c:	0e048263          	beqz	s1,10f80 <__sfvwrite_r+0x2a4>
   10ea0:	0e050863          	beqz	a0,10f90 <__sfvwrite_r+0x2b4>
   10ea4:	00098c13          	mv	s8,s3
   10ea8:	0134f463          	bgeu	s1,s3,10eb0 <__sfvwrite_r+0x1d4>
   10eac:	00048c13          	mv	s8,s1
   10eb0:	00043503          	ld	a0,0(s0)
   10eb4:	01843783          	ld	a5,24(s0)
   10eb8:	000c0b13          	mv	s6,s8
   10ebc:	02042683          	lw	a3,32(s0)
   10ec0:	00a7f863          	bgeu	a5,a0,10ed0 <__sfvwrite_r+0x1f4>
   10ec4:	00c42603          	lw	a2,12(s0)
   10ec8:	00d60bbb          	addw	s7,a2,a3
   10ecc:	0f8bc263          	blt	s7,s8,10fb0 <__sfvwrite_r+0x2d4>
   10ed0:	24dc4a63          	blt	s8,a3,11124 <__sfvwrite_r+0x448>
   10ed4:	04043783          	ld	a5,64(s0)
   10ed8:	03043583          	ld	a1,48(s0)
   10edc:	000c8613          	mv	a2,s9
   10ee0:	000a8513          	mv	a0,s5
   10ee4:	000780e7          	jalr	a5
   10ee8:	00050b13          	mv	s6,a0
   10eec:	06a05c63          	blez	a0,10f64 <__sfvwrite_r+0x288>
   10ef0:	0005061b          	sext.w	a2,a0
   10ef4:	40c989bb          	subw	s3,s3,a2
   10ef8:	00100513          	li	a0,1
   10efc:	04098c63          	beqz	s3,10f54 <__sfvwrite_r+0x278>
   10f00:	010a3783          	ld	a5,16(s4)
   10f04:	016c8cb3          	add	s9,s9,s6
   10f08:	416484b3          	sub	s1,s1,s6
   10f0c:	41678b33          	sub	s6,a5,s6
   10f10:	016a3823          	sd	s6,16(s4)
   10f14:	f80b14e3          	bnez	s6,10e9c <__sfvwrite_r+0x1c0>
   10f18:	00000513          	li	a0,0
   10f1c:	05813083          	ld	ra,88(sp)
   10f20:	05013403          	ld	s0,80(sp)
   10f24:	04813483          	ld	s1,72(sp)
   10f28:	04013903          	ld	s2,64(sp)
   10f2c:	03813983          	ld	s3,56(sp)
   10f30:	03013a03          	ld	s4,48(sp)
   10f34:	02813a83          	ld	s5,40(sp)
   10f38:	02013b03          	ld	s6,32(sp)
   10f3c:	01813b83          	ld	s7,24(sp)
   10f40:	01013c03          	ld	s8,16(sp)
   10f44:	00813c83          	ld	s9,8(sp)
   10f48:	00013d03          	ld	s10,0(sp)
   10f4c:	06010113          	addi	sp,sp,96
   10f50:	00008067          	ret
   10f54:	00040593          	mv	a1,s0
   10f58:	000a8513          	mv	a0,s5
   10f5c:	471010ef          	jal	ra,12bcc <_fflush_r>
   10f60:	fa0500e3          	beqz	a0,10f00 <__sfvwrite_r+0x224>
   10f64:	01041783          	lh	a5,16(s0)
   10f68:	0407e793          	ori	a5,a5,64
   10f6c:	00f41823          	sh	a5,16(s0)
   10f70:	fff00513          	li	a0,-1
   10f74:	fa9ff06f          	j	10f1c <__sfvwrite_r+0x240>
   10f78:	00000513          	li	a0,0
   10f7c:	00008067          	ret
   10f80:	00893483          	ld	s1,8(s2)
   10f84:	00093c83          	ld	s9,0(s2)
   10f88:	01090913          	addi	s2,s2,16
   10f8c:	fe048ae3          	beqz	s1,10f80 <__sfvwrite_r+0x2a4>
   10f90:	00048613          	mv	a2,s1
   10f94:	00a00593          	li	a1,10
   10f98:	000c8513          	mv	a0,s9
   10f9c:	419000ef          	jal	ra,11bb4 <memchr>
   10fa0:	1e050263          	beqz	a0,11184 <__sfvwrite_r+0x4a8>
   10fa4:	00150513          	addi	a0,a0,1
   10fa8:	419509bb          	subw	s3,a0,s9
   10fac:	ef9ff06f          	j	10ea4 <__sfvwrite_r+0x1c8>
   10fb0:	000c8593          	mv	a1,s9
   10fb4:	000b8613          	mv	a2,s7
   10fb8:	609000ef          	jal	ra,11dc0 <memmove>
   10fbc:	00043783          	ld	a5,0(s0)
   10fc0:	00040593          	mv	a1,s0
   10fc4:	000a8513          	mv	a0,s5
   10fc8:	017787b3          	add	a5,a5,s7
   10fcc:	00f43023          	sd	a5,0(s0)
   10fd0:	3fd010ef          	jal	ra,12bcc <_fflush_r>
   10fd4:	f80518e3          	bnez	a0,10f64 <__sfvwrite_r+0x288>
   10fd8:	000b8613          	mv	a2,s7
   10fdc:	000b8b13          	mv	s6,s7
   10fe0:	f15ff06f          	j	10ef4 <__sfvwrite_r+0x218>
   10fe4:	01843783          	ld	a5,24(s0)
   10fe8:	04a7ec63          	bltu	a5,a0,11040 <__sfvwrite_r+0x364>
   10fec:	02042c83          	lw	s9,32(s0)
   10ff0:	0599e863          	bltu	s3,s9,11040 <__sfvwrite_r+0x364>
   10ff4:	00098513          	mv	a0,s3
   10ff8:	013bf463          	bgeu	s7,s3,11000 <__sfvwrite_r+0x324>
   10ffc:	000b0513          	mv	a0,s6
   11000:	000c8593          	mv	a1,s9
   11004:	0005051b          	sext.w	a0,a0
   11008:	159020ef          	jal	ra,13960 <__divdi3>
   1100c:	00050593          	mv	a1,a0
   11010:	000c8513          	mv	a0,s9
   11014:	0e9020ef          	jal	ra,138fc <__muldi3>
   11018:	03043583          	ld	a1,48(s0)
   1101c:	04043783          	ld	a5,64(s0)
   11020:	0005069b          	sext.w	a3,a0
   11024:	000c0613          	mv	a2,s8
   11028:	000a8513          	mv	a0,s5
   1102c:	000780e7          	jalr	a5
   11030:	f2a05ae3          	blez	a0,10f64 <__sfvwrite_r+0x288>
   11034:	00050493          	mv	s1,a0
   11038:	409989b3          	sub	s3,s3,s1
   1103c:	e19ff06f          	j	10e54 <__sfvwrite_r+0x178>
   11040:	0099f463          	bgeu	s3,s1,11048 <__sfvwrite_r+0x36c>
   11044:	00098493          	mv	s1,s3
   11048:	00048613          	mv	a2,s1
   1104c:	000c0593          	mv	a1,s8
   11050:	571000ef          	jal	ra,11dc0 <memmove>
   11054:	00c42783          	lw	a5,12(s0)
   11058:	00043703          	ld	a4,0(s0)
   1105c:	409786bb          	subw	a3,a5,s1
   11060:	00970733          	add	a4,a4,s1
   11064:	00d42623          	sw	a3,12(s0)
   11068:	00e43023          	sd	a4,0(s0)
   1106c:	fc0696e3          	bnez	a3,11038 <__sfvwrite_r+0x35c>
   11070:	00040593          	mv	a1,s0
   11074:	000a8513          	mv	a0,s5
   11078:	355010ef          	jal	ra,12bcc <_fflush_r>
   1107c:	ee0514e3          	bnez	a0,10f64 <__sfvwrite_r+0x288>
   11080:	409989b3          	sub	s3,s3,s1
   11084:	dd1ff06f          	j	10e54 <__sfvwrite_r+0x178>
   11088:	4807f713          	andi	a4,a5,1152
   1108c:	d8070ee3          	beqz	a4,10e28 <__sfvwrite_r+0x14c>
   11090:	02042683          	lw	a3,32(s0)
   11094:	01843583          	ld	a1,24(s0)
   11098:	00198713          	addi	a4,s3,1
   1109c:	0016949b          	slliw	s1,a3,0x1
   110a0:	00d486bb          	addw	a3,s1,a3
   110a4:	40b50533          	sub	a0,a0,a1
   110a8:	01f6d49b          	srliw	s1,a3,0x1f
   110ac:	00050c9b          	sext.w	s9,a0
   110b0:	00d484bb          	addw	s1,s1,a3
   110b4:	4014d49b          	sraiw	s1,s1,0x1
   110b8:	01970733          	add	a4,a4,s9
   110bc:	00e4f663          	bgeu	s1,a4,110c8 <__sfvwrite_r+0x3ec>
   110c0:	0019849b          	addiw	s1,s3,1
   110c4:	00a484bb          	addw	s1,s1,a0
   110c8:	4007f793          	andi	a5,a5,1024
   110cc:	08078263          	beqz	a5,11150 <__sfvwrite_r+0x474>
   110d0:	00048593          	mv	a1,s1
   110d4:	000a8513          	mv	a0,s5
   110d8:	284000ef          	jal	ra,1135c <_malloc_r>
   110dc:	00050d13          	mv	s10,a0
   110e0:	0a050663          	beqz	a0,1118c <__sfvwrite_r+0x4b0>
   110e4:	01843583          	ld	a1,24(s0)
   110e8:	000c8613          	mv	a2,s9
   110ec:	3b9000ef          	jal	ra,11ca4 <memcpy>
   110f0:	01045783          	lhu	a5,16(s0)
   110f4:	b7f7f793          	andi	a5,a5,-1153
   110f8:	0807e793          	ori	a5,a5,128
   110fc:	00f41823          	sh	a5,16(s0)
   11100:	019d0533          	add	a0,s10,s9
   11104:	419487bb          	subw	a5,s1,s9
   11108:	01a43c23          	sd	s10,24(s0)
   1110c:	00a43023          	sd	a0,0(s0)
   11110:	02942023          	sw	s1,32(s0)
   11114:	00098c93          	mv	s9,s3
   11118:	00f42623          	sw	a5,12(s0)
   1111c:	00098d13          	mv	s10,s3
   11120:	d09ff06f          	j	10e28 <__sfvwrite_r+0x14c>
   11124:	000c0613          	mv	a2,s8
   11128:	000c8593          	mv	a1,s9
   1112c:	495000ef          	jal	ra,11dc0 <memmove>
   11130:	00c42703          	lw	a4,12(s0)
   11134:	00043783          	ld	a5,0(s0)
   11138:	000c061b          	sext.w	a2,s8
   1113c:	40c7073b          	subw	a4,a4,a2
   11140:	01878c33          	add	s8,a5,s8
   11144:	00e42623          	sw	a4,12(s0)
   11148:	01843023          	sd	s8,0(s0)
   1114c:	da9ff06f          	j	10ef4 <__sfvwrite_r+0x218>
   11150:	00048613          	mv	a2,s1
   11154:	000a8513          	mv	a0,s5
   11158:	591000ef          	jal	ra,11ee8 <_realloc_r>
   1115c:	00050d13          	mv	s10,a0
   11160:	fa0510e3          	bnez	a0,11100 <__sfvwrite_r+0x424>
   11164:	01843583          	ld	a1,24(s0)
   11168:	000a8513          	mv	a0,s5
   1116c:	421010ef          	jal	ra,12d8c <_free_r>
   11170:	01041783          	lh	a5,16(s0)
   11174:	00c00713          	li	a4,12
   11178:	00eaa023          	sw	a4,0(s5)
   1117c:	f7f7f793          	andi	a5,a5,-129
   11180:	de9ff06f          	j	10f68 <__sfvwrite_r+0x28c>
   11184:	0014899b          	addiw	s3,s1,1
   11188:	d1dff06f          	j	10ea4 <__sfvwrite_r+0x1c8>
   1118c:	00c00793          	li	a5,12
   11190:	00faa023          	sw	a5,0(s5)
   11194:	01041783          	lh	a5,16(s0)
   11198:	dd1ff06f          	j	10f68 <__sfvwrite_r+0x28c>
   1119c:	fff00513          	li	a0,-1
   111a0:	d7dff06f          	j	10f1c <__sfvwrite_r+0x240>

00000000000111a4 <_fwalk>:
   111a4:	fc010113          	addi	sp,sp,-64
   111a8:	01313c23          	sd	s3,24(sp)
   111ac:	02113c23          	sd	ra,56(sp)
   111b0:	02813823          	sd	s0,48(sp)
   111b4:	02913423          	sd	s1,40(sp)
   111b8:	03213023          	sd	s2,32(sp)
   111bc:	01413823          	sd	s4,16(sp)
   111c0:	01513423          	sd	s5,8(sp)
   111c4:	01613023          	sd	s6,0(sp)
   111c8:	52050993          	addi	s3,a0,1312
   111cc:	0a098263          	beqz	s3,11270 <_fwalk+0xcc>
   111d0:	00058a93          	mv	s5,a1
   111d4:	00000913          	li	s2,0
   111d8:	00100b13          	li	s6,1
   111dc:	fff00a13          	li	s4,-1
   111e0:	0089a783          	lw	a5,8(s3)
   111e4:	0109b403          	ld	s0,16(s3)
   111e8:	04f05a63          	blez	a5,1123c <_fwalk+0x98>
   111ec:	fff7879b          	addiw	a5,a5,-1
   111f0:	02079493          	slli	s1,a5,0x20
   111f4:	0204d493          	srli	s1,s1,0x20
   111f8:	00148793          	addi	a5,s1,1
   111fc:	00179493          	slli	s1,a5,0x1
   11200:	00f484b3          	add	s1,s1,a5
   11204:	00249493          	slli	s1,s1,0x2
   11208:	40f484b3          	sub	s1,s1,a5
   1120c:	00449493          	slli	s1,s1,0x4
   11210:	009404b3          	add	s1,s0,s1
   11214:	01045783          	lhu	a5,16(s0)
   11218:	00fb7e63          	bgeu	s6,a5,11234 <_fwalk+0x90>
   1121c:	01241783          	lh	a5,18(s0)
   11220:	00040513          	mv	a0,s0
   11224:	01478863          	beq	a5,s4,11234 <_fwalk+0x90>
   11228:	000a80e7          	jalr	s5
   1122c:	01256933          	or	s2,a0,s2
   11230:	0009091b          	sext.w	s2,s2
   11234:	0b040413          	addi	s0,s0,176
   11238:	fc941ee3          	bne	s0,s1,11214 <_fwalk+0x70>
   1123c:	0009b983          	ld	s3,0(s3)
   11240:	fa0990e3          	bnez	s3,111e0 <_fwalk+0x3c>
   11244:	03813083          	ld	ra,56(sp)
   11248:	03013403          	ld	s0,48(sp)
   1124c:	00090513          	mv	a0,s2
   11250:	02813483          	ld	s1,40(sp)
   11254:	02013903          	ld	s2,32(sp)
   11258:	01813983          	ld	s3,24(sp)
   1125c:	01013a03          	ld	s4,16(sp)
   11260:	00813a83          	ld	s5,8(sp)
   11264:	00013b03          	ld	s6,0(sp)
   11268:	04010113          	addi	sp,sp,64
   1126c:	00008067          	ret
   11270:	00000913          	li	s2,0
   11274:	fd1ff06f          	j	11244 <_fwalk+0xa0>

0000000000011278 <_fwalk_reent>:
   11278:	fb010113          	addi	sp,sp,-80
   1127c:	03213823          	sd	s2,48(sp)
   11280:	04113423          	sd	ra,72(sp)
   11284:	04813023          	sd	s0,64(sp)
   11288:	02913c23          	sd	s1,56(sp)
   1128c:	03313423          	sd	s3,40(sp)
   11290:	03413023          	sd	s4,32(sp)
   11294:	01513c23          	sd	s5,24(sp)
   11298:	01613823          	sd	s6,16(sp)
   1129c:	01713423          	sd	s7,8(sp)
   112a0:	52050913          	addi	s2,a0,1312
   112a4:	0a090863          	beqz	s2,11354 <_fwalk_reent+0xdc>
   112a8:	00058a93          	mv	s5,a1
   112ac:	00050993          	mv	s3,a0
   112b0:	00000b13          	li	s6,0
   112b4:	00100b93          	li	s7,1
   112b8:	fff00a13          	li	s4,-1
   112bc:	00892783          	lw	a5,8(s2)
   112c0:	01093403          	ld	s0,16(s2)
   112c4:	04f05c63          	blez	a5,1131c <_fwalk_reent+0xa4>
   112c8:	fff7879b          	addiw	a5,a5,-1
   112cc:	02079493          	slli	s1,a5,0x20
   112d0:	0204d493          	srli	s1,s1,0x20
   112d4:	00148793          	addi	a5,s1,1
   112d8:	00179493          	slli	s1,a5,0x1
   112dc:	00f484b3          	add	s1,s1,a5
   112e0:	00249493          	slli	s1,s1,0x2
   112e4:	40f484b3          	sub	s1,s1,a5
   112e8:	00449493          	slli	s1,s1,0x4
   112ec:	009404b3          	add	s1,s0,s1
   112f0:	01045783          	lhu	a5,16(s0)
   112f4:	02fbf063          	bgeu	s7,a5,11314 <_fwalk_reent+0x9c>
   112f8:	01241783          	lh	a5,18(s0)
   112fc:	00040593          	mv	a1,s0
   11300:	00098513          	mv	a0,s3
   11304:	01478863          	beq	a5,s4,11314 <_fwalk_reent+0x9c>
   11308:	000a80e7          	jalr	s5
   1130c:	01656b33          	or	s6,a0,s6
   11310:	000b0b1b          	sext.w	s6,s6
   11314:	0b040413          	addi	s0,s0,176
   11318:	fc941ce3          	bne	s0,s1,112f0 <_fwalk_reent+0x78>
   1131c:	00093903          	ld	s2,0(s2)
   11320:	f8091ee3          	bnez	s2,112bc <_fwalk_reent+0x44>
   11324:	04813083          	ld	ra,72(sp)
   11328:	04013403          	ld	s0,64(sp)
   1132c:	000b0513          	mv	a0,s6
   11330:	03813483          	ld	s1,56(sp)
   11334:	03013903          	ld	s2,48(sp)
   11338:	02813983          	ld	s3,40(sp)
   1133c:	02013a03          	ld	s4,32(sp)
   11340:	01813a83          	ld	s5,24(sp)
   11344:	01013b03          	ld	s6,16(sp)
   11348:	00813b83          	ld	s7,8(sp)
   1134c:	05010113          	addi	sp,sp,80
   11350:	00008067          	ret
   11354:	00000b13          	li	s6,0
   11358:	fcdff06f          	j	11324 <_fwalk_reent+0xac>

000000000001135c <_malloc_r>:
   1135c:	fa010113          	addi	sp,sp,-96
   11360:	04913423          	sd	s1,72(sp)
   11364:	05213023          	sd	s2,64(sp)
   11368:	04113c23          	sd	ra,88(sp)
   1136c:	04813823          	sd	s0,80(sp)
   11370:	03313c23          	sd	s3,56(sp)
   11374:	03413823          	sd	s4,48(sp)
   11378:	03513423          	sd	s5,40(sp)
   1137c:	03613023          	sd	s6,32(sp)
   11380:	01713c23          	sd	s7,24(sp)
   11384:	01813823          	sd	s8,16(sp)
   11388:	01913423          	sd	s9,8(sp)
   1138c:	01758493          	addi	s1,a1,23
   11390:	02e00793          	li	a5,46
   11394:	00050913          	mv	s2,a0
   11398:	0a97e663          	bltu	a5,s1,11444 <_malloc_r+0xe8>
   1139c:	02000793          	li	a5,32
   113a0:	06b7e263          	bltu	a5,a1,11404 <_malloc_r+0xa8>
   113a4:	33d000ef          	jal	ra,11ee0 <__malloc_lock>
   113a8:	02000493          	li	s1,32
   113ac:	05000793          	li	a5,80
   113b0:	00400613          	li	a2,4
   113b4:	00004997          	auipc	s3,0x4
   113b8:	eac98993          	addi	s3,s3,-340 # 15260 <__malloc_av_>
   113bc:	00f987b3          	add	a5,s3,a5
   113c0:	0087b403          	ld	s0,8(a5)
   113c4:	ff078713          	addi	a4,a5,-16
   113c8:	2ae40063          	beq	s0,a4,11668 <_malloc_r+0x30c>
   113cc:	00843783          	ld	a5,8(s0)
   113d0:	01843683          	ld	a3,24(s0)
   113d4:	01043603          	ld	a2,16(s0)
   113d8:	ffc7f793          	andi	a5,a5,-4
   113dc:	00f407b3          	add	a5,s0,a5
   113e0:	0087b703          	ld	a4,8(a5)
   113e4:	00d63c23          	sd	a3,24(a2)
   113e8:	00c6b823          	sd	a2,16(a3)
   113ec:	00176713          	ori	a4,a4,1
   113f0:	00090513          	mv	a0,s2
   113f4:	00e7b423          	sd	a4,8(a5)
   113f8:	2ed000ef          	jal	ra,11ee4 <__malloc_unlock>
   113fc:	01040513          	addi	a0,s0,16
   11400:	0100006f          	j	11410 <_malloc_r+0xb4>
   11404:	00c00793          	li	a5,12
   11408:	00f92023          	sw	a5,0(s2)
   1140c:	00000513          	li	a0,0
   11410:	05813083          	ld	ra,88(sp)
   11414:	05013403          	ld	s0,80(sp)
   11418:	04813483          	ld	s1,72(sp)
   1141c:	04013903          	ld	s2,64(sp)
   11420:	03813983          	ld	s3,56(sp)
   11424:	03013a03          	ld	s4,48(sp)
   11428:	02813a83          	ld	s5,40(sp)
   1142c:	02013b03          	ld	s6,32(sp)
   11430:	01813b83          	ld	s7,24(sp)
   11434:	01013c03          	ld	s8,16(sp)
   11438:	00813c83          	ld	s9,8(sp)
   1143c:	06010113          	addi	sp,sp,96
   11440:	00008067          	ret
   11444:	800007b7          	lui	a5,0x80000
   11448:	ff04f493          	andi	s1,s1,-16
   1144c:	fff7c793          	not	a5,a5
   11450:	fa97eae3          	bltu	a5,s1,11404 <_malloc_r+0xa8>
   11454:	fab4e8e3          	bltu	s1,a1,11404 <_malloc_r+0xa8>
   11458:	289000ef          	jal	ra,11ee0 <__malloc_lock>
   1145c:	1f700793          	li	a5,503
   11460:	4c97f263          	bgeu	a5,s1,11924 <_malloc_r+0x5c8>
   11464:	0094d793          	srli	a5,s1,0x9
   11468:	36078863          	beqz	a5,117d8 <_malloc_r+0x47c>
   1146c:	00400713          	li	a4,4
   11470:	42f76c63          	bltu	a4,a5,118a8 <_malloc_r+0x54c>
   11474:	0064d513          	srli	a0,s1,0x6
   11478:	0005051b          	sext.w	a0,a0
   1147c:	0395061b          	addiw	a2,a0,57
   11480:	0016169b          	slliw	a3,a2,0x1
   11484:	0385051b          	addiw	a0,a0,56
   11488:	00369693          	slli	a3,a3,0x3
   1148c:	00004997          	auipc	s3,0x4
   11490:	dd498993          	addi	s3,s3,-556 # 15260 <__malloc_av_>
   11494:	00d986b3          	add	a3,s3,a3
   11498:	0086b403          	ld	s0,8(a3)
   1149c:	ff068693          	addi	a3,a3,-16
   114a0:	1c868a63          	beq	a3,s0,11674 <_malloc_r+0x318>
   114a4:	00843783          	ld	a5,8(s0)
   114a8:	01f00593          	li	a1,31
   114ac:	ffc7f793          	andi	a5,a5,-4
   114b0:	40978733          	sub	a4,a5,s1
   114b4:	02e5c063          	blt	a1,a4,114d4 <_malloc_r+0x178>
   114b8:	36075e63          	bgez	a4,11834 <_malloc_r+0x4d8>
   114bc:	01843403          	ld	s0,24(s0)
   114c0:	1a868a63          	beq	a3,s0,11674 <_malloc_r+0x318>
   114c4:	00843783          	ld	a5,8(s0)
   114c8:	ffc7f793          	andi	a5,a5,-4
   114cc:	40978733          	sub	a4,a5,s1
   114d0:	fee5d4e3          	bge	a1,a4,114b8 <_malloc_r+0x15c>
   114d4:	0209b403          	ld	s0,32(s3)
   114d8:	00004817          	auipc	a6,0x4
   114dc:	d9880813          	addi	a6,a6,-616 # 15270 <__malloc_av_+0x10>
   114e0:	00050613          	mv	a2,a0
   114e4:	1b041063          	bne	s0,a6,11684 <_malloc_r+0x328>
   114e8:	0089b783          	ld	a5,8(s3)
   114ec:	4026571b          	sraiw	a4,a2,0x2
   114f0:	00100693          	li	a3,1
   114f4:	00e696b3          	sll	a3,a3,a4
   114f8:	20d7fc63          	bgeu	a5,a3,11710 <_malloc_r+0x3b4>
   114fc:	0109b403          	ld	s0,16(s3)
   11500:	00843a03          	ld	s4,8(s0)
   11504:	ffca7a93          	andi	s5,s4,-4
   11508:	009ae863          	bltu	s5,s1,11518 <_malloc_r+0x1bc>
   1150c:	409a87b3          	sub	a5,s5,s1
   11510:	01f00713          	li	a4,31
   11514:	2ef74a63          	blt	a4,a5,11808 <_malloc_r+0x4ac>
   11518:	78818793          	addi	a5,gp,1928 # 15ac0 <__malloc_top_pad>
   1151c:	76818c13          	addi	s8,gp,1896 # 15aa0 <__malloc_sbrk_base>
   11520:	0007ba03          	ld	s4,0(a5) # ffffffff80000000 <__BSS_END__+0xffffffff7ffea4c8>
   11524:	000c3703          	ld	a4,0(s8)
   11528:	fff00793          	li	a5,-1
   1152c:	01540bb3          	add	s7,s0,s5
   11530:	01448a33          	add	s4,s1,s4
   11534:	4cf70263          	beq	a4,a5,119f8 <_malloc_r+0x69c>
   11538:	000017b7          	lui	a5,0x1
   1153c:	01f78793          	addi	a5,a5,31 # 101f <main-0xf091>
   11540:	00fa0a33          	add	s4,s4,a5
   11544:	fffff7b7          	lui	a5,0xfffff
   11548:	00fa7a33          	and	s4,s4,a5
   1154c:	000a0593          	mv	a1,s4
   11550:	00090513          	mv	a0,s2
   11554:	719000ef          	jal	ra,1246c <_sbrk_r>
   11558:	fff00793          	li	a5,-1
   1155c:	00050b13          	mv	s6,a0
   11560:	3ef50e63          	beq	a0,a5,1195c <_malloc_r+0x600>
   11564:	3f756a63          	bltu	a0,s7,11958 <_malloc_r+0x5fc>
   11568:	7d018c93          	addi	s9,gp,2000 # 15b08 <__malloc_current_mallinfo>
   1156c:	000ca703          	lw	a4,0(s9)
   11570:	014707bb          	addw	a5,a4,s4
   11574:	7cf1a823          	sw	a5,2000(gp) # 15b08 <__malloc_current_mallinfo>
   11578:	00078693          	mv	a3,a5
   1157c:	54ab8063          	beq	s7,a0,11abc <_malloc_r+0x760>
   11580:	000c3703          	ld	a4,0(s8)
   11584:	fff00793          	li	a5,-1
   11588:	54f70863          	beq	a4,a5,11ad8 <_malloc_r+0x77c>
   1158c:	417b07b3          	sub	a5,s6,s7
   11590:	00d787bb          	addw	a5,a5,a3
   11594:	7cf1a823          	sw	a5,2000(gp) # 15b08 <__malloc_current_mallinfo>
   11598:	00fb7b93          	andi	s7,s6,15
   1159c:	480b8263          	beqz	s7,11a20 <_malloc_r+0x6c4>
   115a0:	417b0b33          	sub	s6,s6,s7
   115a4:	000017b7          	lui	a5,0x1
   115a8:	010b0b13          	addi	s6,s6,16 # ffffffff80000010 <__BSS_END__+0xffffffff7ffea4d8>
   115ac:	fff78713          	addi	a4,a5,-1 # fff <main-0xf0b1>
   115b0:	014b0c33          	add	s8,s6,s4
   115b4:	01078793          	addi	a5,a5,16
   115b8:	41778a33          	sub	s4,a5,s7
   115bc:	00ec77b3          	and	a5,s8,a4
   115c0:	40fa0a33          	sub	s4,s4,a5
   115c4:	00ea7a33          	and	s4,s4,a4
   115c8:	000a0593          	mv	a1,s4
   115cc:	00090513          	mv	a0,s2
   115d0:	69d000ef          	jal	ra,1246c <_sbrk_r>
   115d4:	fff00793          	li	a5,-1
   115d8:	56f50263          	beq	a0,a5,11b3c <_malloc_r+0x7e0>
   115dc:	41650533          	sub	a0,a0,s6
   115e0:	000a071b          	sext.w	a4,s4
   115e4:	01450a33          	add	s4,a0,s4
   115e8:	000ca783          	lw	a5,0(s9)
   115ec:	00004697          	auipc	a3,0x4
   115f0:	c966b223          	sd	s6,-892(a3) # 15270 <__malloc_av_+0x10>
   115f4:	001a6a13          	ori	s4,s4,1
   115f8:	00e787bb          	addw	a5,a5,a4
   115fc:	7cf1a823          	sw	a5,2000(gp) # 15b08 <__malloc_current_mallinfo>
   11600:	014b3423          	sd	s4,8(s6)
   11604:	4d340e63          	beq	s0,s3,11ae0 <_malloc_r+0x784>
   11608:	01f00613          	li	a2,31
   1160c:	4d567e63          	bgeu	a2,s5,11ae8 <_malloc_r+0x78c>
   11610:	00843683          	ld	a3,8(s0)
   11614:	fe8a8713          	addi	a4,s5,-24
   11618:	ff077713          	andi	a4,a4,-16
   1161c:	0016f693          	andi	a3,a3,1
   11620:	00e6e6b3          	or	a3,a3,a4
   11624:	00d43423          	sd	a3,8(s0)
   11628:	00900593          	li	a1,9
   1162c:	00e406b3          	add	a3,s0,a4
   11630:	00b6b423          	sd	a1,8(a3)
   11634:	00b6b823          	sd	a1,16(a3)
   11638:	50e66c63          	bltu	a2,a4,11b50 <_malloc_r+0x7f4>
   1163c:	008b3a03          	ld	s4,8(s6)
   11640:	000b0413          	mv	s0,s6
   11644:	78018713          	addi	a4,gp,1920 # 15ab8 <__malloc_max_sbrked_mem>
   11648:	00073703          	ld	a4,0(a4)
   1164c:	00f77463          	bgeu	a4,a5,11654 <_malloc_r+0x2f8>
   11650:	78f1b023          	sd	a5,1920(gp) # 15ab8 <__malloc_max_sbrked_mem>
   11654:	77818713          	addi	a4,gp,1912 # 15ab0 <_edata>
   11658:	00073703          	ld	a4,0(a4)
   1165c:	30f77463          	bgeu	a4,a5,11964 <_malloc_r+0x608>
   11660:	76f1bc23          	sd	a5,1912(gp) # 15ab0 <_edata>
   11664:	3000006f          	j	11964 <_malloc_r+0x608>
   11668:	0187b403          	ld	s0,24(a5)
   1166c:	0026061b          	addiw	a2,a2,2
   11670:	d4879ee3          	bne	a5,s0,113cc <_malloc_r+0x70>
   11674:	0209b403          	ld	s0,32(s3)
   11678:	00004817          	auipc	a6,0x4
   1167c:	bf880813          	addi	a6,a6,-1032 # 15270 <__malloc_av_+0x10>
   11680:	e70404e3          	beq	s0,a6,114e8 <_malloc_r+0x18c>
   11684:	00843783          	ld	a5,8(s0)
   11688:	01f00693          	li	a3,31
   1168c:	ffc7f793          	andi	a5,a5,-4
   11690:	40978733          	sub	a4,a5,s1
   11694:	28e6c263          	blt	a3,a4,11918 <_malloc_r+0x5bc>
   11698:	00004697          	auipc	a3,0x4
   1169c:	bf06b823          	sd	a6,-1040(a3) # 15288 <__malloc_av_+0x28>
   116a0:	00004697          	auipc	a3,0x4
   116a4:	bf06b023          	sd	a6,-1056(a3) # 15280 <__malloc_av_+0x20>
   116a8:	14075063          	bgez	a4,117e8 <_malloc_r+0x48c>
   116ac:	1ff00713          	li	a4,511
   116b0:	18f76863          	bltu	a4,a5,11840 <_malloc_r+0x4e4>
   116b4:	0037d793          	srli	a5,a5,0x3
   116b8:	0007879b          	sext.w	a5,a5
   116bc:	0017871b          	addiw	a4,a5,1
   116c0:	0017171b          	slliw	a4,a4,0x1
   116c4:	00371713          	slli	a4,a4,0x3
   116c8:	0089b503          	ld	a0,8(s3)
   116cc:	00e98733          	add	a4,s3,a4
   116d0:	00073583          	ld	a1,0(a4)
   116d4:	4027d69b          	sraiw	a3,a5,0x2
   116d8:	00100793          	li	a5,1
   116dc:	00d797b3          	sll	a5,a5,a3
   116e0:	00a7e7b3          	or	a5,a5,a0
   116e4:	ff070693          	addi	a3,a4,-16
   116e8:	00d43c23          	sd	a3,24(s0)
   116ec:	00b43823          	sd	a1,16(s0)
   116f0:	00004697          	auipc	a3,0x4
   116f4:	b6f6bc23          	sd	a5,-1160(a3) # 15268 <__malloc_av_+0x8>
   116f8:	00873023          	sd	s0,0(a4)
   116fc:	0085bc23          	sd	s0,24(a1)
   11700:	4026571b          	sraiw	a4,a2,0x2
   11704:	00100693          	li	a3,1
   11708:	00e696b3          	sll	a3,a3,a4
   1170c:	ded7e8e3          	bltu	a5,a3,114fc <_malloc_r+0x1a0>
   11710:	00f6f733          	and	a4,a3,a5
   11714:	02071463          	bnez	a4,1173c <_malloc_r+0x3e0>
   11718:	00169693          	slli	a3,a3,0x1
   1171c:	ffc67613          	andi	a2,a2,-4
   11720:	00f6f733          	and	a4,a3,a5
   11724:	0046061b          	addiw	a2,a2,4
   11728:	00071a63          	bnez	a4,1173c <_malloc_r+0x3e0>
   1172c:	00169693          	slli	a3,a3,0x1
   11730:	00f6f733          	and	a4,a3,a5
   11734:	0046061b          	addiw	a2,a2,4
   11738:	fe070ae3          	beqz	a4,1172c <_malloc_r+0x3d0>
   1173c:	01f00513          	li	a0,31
   11740:	0016089b          	addiw	a7,a2,1
   11744:	0018989b          	slliw	a7,a7,0x1
   11748:	00389893          	slli	a7,a7,0x3
   1174c:	ff088893          	addi	a7,a7,-16
   11750:	011988b3          	add	a7,s3,a7
   11754:	00088593          	mv	a1,a7
   11758:	00060313          	mv	t1,a2
   1175c:	0185b403          	ld	s0,24(a1)
   11760:	00859a63          	bne	a1,s0,11774 <_malloc_r+0x418>
   11764:	1700006f          	j	118d4 <_malloc_r+0x578>
   11768:	18075063          	bgez	a4,118e8 <_malloc_r+0x58c>
   1176c:	01843403          	ld	s0,24(s0)
   11770:	16858263          	beq	a1,s0,118d4 <_malloc_r+0x578>
   11774:	00843783          	ld	a5,8(s0)
   11778:	ffc7f793          	andi	a5,a5,-4
   1177c:	40978733          	sub	a4,a5,s1
   11780:	fee554e3          	bge	a0,a4,11768 <_malloc_r+0x40c>
   11784:	01843683          	ld	a3,24(s0)
   11788:	01043603          	ld	a2,16(s0)
   1178c:	0014e593          	ori	a1,s1,1
   11790:	00b43423          	sd	a1,8(s0)
   11794:	00d63c23          	sd	a3,24(a2)
   11798:	00c6b823          	sd	a2,16(a3)
   1179c:	009404b3          	add	s1,s0,s1
   117a0:	00004697          	auipc	a3,0x4
   117a4:	ae96b423          	sd	s1,-1304(a3) # 15288 <__malloc_av_+0x28>
   117a8:	00004697          	auipc	a3,0x4
   117ac:	ac96bc23          	sd	s1,-1320(a3) # 15280 <__malloc_av_+0x20>
   117b0:	00176693          	ori	a3,a4,1
   117b4:	0104bc23          	sd	a6,24(s1)
   117b8:	0104b823          	sd	a6,16(s1)
   117bc:	00d4b423          	sd	a3,8(s1)
   117c0:	00f407b3          	add	a5,s0,a5
   117c4:	00090513          	mv	a0,s2
   117c8:	00e7b023          	sd	a4,0(a5)
   117cc:	718000ef          	jal	ra,11ee4 <__malloc_unlock>
   117d0:	01040513          	addi	a0,s0,16
   117d4:	c3dff06f          	j	11410 <_malloc_r+0xb4>
   117d8:	40000693          	li	a3,1024
   117dc:	04000613          	li	a2,64
   117e0:	03f00513          	li	a0,63
   117e4:	ca9ff06f          	j	1148c <_malloc_r+0x130>
   117e8:	00f407b3          	add	a5,s0,a5
   117ec:	0087b703          	ld	a4,8(a5)
   117f0:	00090513          	mv	a0,s2
   117f4:	00176713          	ori	a4,a4,1
   117f8:	00e7b423          	sd	a4,8(a5)
   117fc:	6e8000ef          	jal	ra,11ee4 <__malloc_unlock>
   11800:	01040513          	addi	a0,s0,16
   11804:	c0dff06f          	j	11410 <_malloc_r+0xb4>
   11808:	0014e713          	ori	a4,s1,1
   1180c:	00e43423          	sd	a4,8(s0)
   11810:	009404b3          	add	s1,s0,s1
   11814:	00004717          	auipc	a4,0x4
   11818:	a4973e23          	sd	s1,-1444(a4) # 15270 <__malloc_av_+0x10>
   1181c:	0017e793          	ori	a5,a5,1
   11820:	00090513          	mv	a0,s2
   11824:	00f4b423          	sd	a5,8(s1)
   11828:	6bc000ef          	jal	ra,11ee4 <__malloc_unlock>
   1182c:	01040513          	addi	a0,s0,16
   11830:	be1ff06f          	j	11410 <_malloc_r+0xb4>
   11834:	01843683          	ld	a3,24(s0)
   11838:	01043603          	ld	a2,16(s0)
   1183c:	ba1ff06f          	j	113dc <_malloc_r+0x80>
   11840:	0097d713          	srli	a4,a5,0x9
   11844:	00400693          	li	a3,4
   11848:	0ee6fa63          	bgeu	a3,a4,1193c <_malloc_r+0x5e0>
   1184c:	01400693          	li	a3,20
   11850:	20e6e863          	bltu	a3,a4,11a60 <_malloc_r+0x704>
   11854:	0007071b          	sext.w	a4,a4
   11858:	05c7059b          	addiw	a1,a4,92
   1185c:	0015959b          	slliw	a1,a1,0x1
   11860:	05b7069b          	addiw	a3,a4,91
   11864:	00359593          	slli	a1,a1,0x3
   11868:	00b985b3          	add	a1,s3,a1
   1186c:	0005b703          	ld	a4,0(a1)
   11870:	ff058593          	addi	a1,a1,-16
   11874:	18e58663          	beq	a1,a4,11a00 <_malloc_r+0x6a4>
   11878:	00873683          	ld	a3,8(a4)
   1187c:	ffc6f693          	andi	a3,a3,-4
   11880:	00d7f663          	bgeu	a5,a3,1188c <_malloc_r+0x530>
   11884:	01073703          	ld	a4,16(a4)
   11888:	fee598e3          	bne	a1,a4,11878 <_malloc_r+0x51c>
   1188c:	01873583          	ld	a1,24(a4)
   11890:	0089b783          	ld	a5,8(s3)
   11894:	00b43c23          	sd	a1,24(s0)
   11898:	00e43823          	sd	a4,16(s0)
   1189c:	0085b823          	sd	s0,16(a1)
   118a0:	00873c23          	sd	s0,24(a4)
   118a4:	e5dff06f          	j	11700 <_malloc_r+0x3a4>
   118a8:	01400713          	li	a4,20
   118ac:	0cf77e63          	bgeu	a4,a5,11988 <_malloc_r+0x62c>
   118b0:	05400713          	li	a4,84
   118b4:	1cf76863          	bltu	a4,a5,11a84 <_malloc_r+0x728>
   118b8:	00c4d513          	srli	a0,s1,0xc
   118bc:	0005051b          	sext.w	a0,a0
   118c0:	06f5061b          	addiw	a2,a0,111
   118c4:	0016169b          	slliw	a3,a2,0x1
   118c8:	06e5051b          	addiw	a0,a0,110
   118cc:	00369693          	slli	a3,a3,0x3
   118d0:	bbdff06f          	j	1148c <_malloc_r+0x130>
   118d4:	0013031b          	addiw	t1,t1,1
   118d8:	00337793          	andi	a5,t1,3
   118dc:	01058593          	addi	a1,a1,16
   118e0:	e6079ee3          	bnez	a5,1175c <_malloc_r+0x400>
   118e4:	0c80006f          	j	119ac <_malloc_r+0x650>
   118e8:	00f407b3          	add	a5,s0,a5
   118ec:	0087b703          	ld	a4,8(a5)
   118f0:	01843683          	ld	a3,24(s0)
   118f4:	01043603          	ld	a2,16(s0)
   118f8:	00176713          	ori	a4,a4,1
   118fc:	00e7b423          	sd	a4,8(a5)
   11900:	00d63c23          	sd	a3,24(a2)
   11904:	00090513          	mv	a0,s2
   11908:	00c6b823          	sd	a2,16(a3)
   1190c:	5d8000ef          	jal	ra,11ee4 <__malloc_unlock>
   11910:	01040513          	addi	a0,s0,16
   11914:	afdff06f          	j	11410 <_malloc_r+0xb4>
   11918:	0014e693          	ori	a3,s1,1
   1191c:	00d43423          	sd	a3,8(s0)
   11920:	e7dff06f          	j	1179c <_malloc_r+0x440>
   11924:	0034d613          	srli	a2,s1,0x3
   11928:	0006061b          	sext.w	a2,a2
   1192c:	0016079b          	addiw	a5,a2,1
   11930:	0017979b          	slliw	a5,a5,0x1
   11934:	00379793          	slli	a5,a5,0x3
   11938:	a7dff06f          	j	113b4 <_malloc_r+0x58>
   1193c:	0067d713          	srli	a4,a5,0x6
   11940:	0007071b          	sext.w	a4,a4
   11944:	0397059b          	addiw	a1,a4,57
   11948:	0015959b          	slliw	a1,a1,0x1
   1194c:	0387069b          	addiw	a3,a4,56
   11950:	00359593          	slli	a1,a1,0x3
   11954:	f15ff06f          	j	11868 <_malloc_r+0x50c>
   11958:	15340863          	beq	s0,s3,11aa8 <_malloc_r+0x74c>
   1195c:	0109b403          	ld	s0,16(s3)
   11960:	00843a03          	ld	s4,8(s0)
   11964:	ffca7a13          	andi	s4,s4,-4
   11968:	409a07b3          	sub	a5,s4,s1
   1196c:	009a6663          	bltu	s4,s1,11978 <_malloc_r+0x61c>
   11970:	01f00713          	li	a4,31
   11974:	e8f74ae3          	blt	a4,a5,11808 <_malloc_r+0x4ac>
   11978:	00090513          	mv	a0,s2
   1197c:	568000ef          	jal	ra,11ee4 <__malloc_unlock>
   11980:	00000513          	li	a0,0
   11984:	a8dff06f          	j	11410 <_malloc_r+0xb4>
   11988:	0007879b          	sext.w	a5,a5
   1198c:	05c7861b          	addiw	a2,a5,92
   11990:	0016169b          	slliw	a3,a2,0x1
   11994:	05b7851b          	addiw	a0,a5,91
   11998:	00369693          	slli	a3,a3,0x3
   1199c:	af1ff06f          	j	1148c <_malloc_r+0x130>
   119a0:	0108b783          	ld	a5,16(a7)
   119a4:	fff6061b          	addiw	a2,a2,-1
   119a8:	21179263          	bne	a5,a7,11bac <_malloc_r+0x850>
   119ac:	00367793          	andi	a5,a2,3
   119b0:	ff088893          	addi	a7,a7,-16
   119b4:	fe0796e3          	bnez	a5,119a0 <_malloc_r+0x644>
   119b8:	0089b703          	ld	a4,8(s3)
   119bc:	fff6c793          	not	a5,a3
   119c0:	00e7f7b3          	and	a5,a5,a4
   119c4:	00004717          	auipc	a4,0x4
   119c8:	8af73223          	sd	a5,-1884(a4) # 15268 <__malloc_av_+0x8>
   119cc:	00169693          	slli	a3,a3,0x1
   119d0:	b2d7e6e3          	bltu	a5,a3,114fc <_malloc_r+0x1a0>
   119d4:	b20684e3          	beqz	a3,114fc <_malloc_r+0x1a0>
   119d8:	00f6f733          	and	a4,a3,a5
   119dc:	00071a63          	bnez	a4,119f0 <_malloc_r+0x694>
   119e0:	00169693          	slli	a3,a3,0x1
   119e4:	00f6f733          	and	a4,a3,a5
   119e8:	0043031b          	addiw	t1,t1,4
   119ec:	fe070ae3          	beqz	a4,119e0 <_malloc_r+0x684>
   119f0:	00030613          	mv	a2,t1
   119f4:	d4dff06f          	j	11740 <_malloc_r+0x3e4>
   119f8:	020a0a13          	addi	s4,s4,32
   119fc:	b51ff06f          	j	1154c <_malloc_r+0x1f0>
   11a00:	0089b503          	ld	a0,8(s3)
   11a04:	4026d69b          	sraiw	a3,a3,0x2
   11a08:	00100793          	li	a5,1
   11a0c:	00d797b3          	sll	a5,a5,a3
   11a10:	00a7e7b3          	or	a5,a5,a0
   11a14:	00004697          	auipc	a3,0x4
   11a18:	84f6ba23          	sd	a5,-1964(a3) # 15268 <__malloc_av_+0x8>
   11a1c:	e79ff06f          	j	11894 <_malloc_r+0x538>
   11a20:	000017b7          	lui	a5,0x1
   11a24:	fff78713          	addi	a4,a5,-1 # fff <main-0xf0b1>
   11a28:	014b0bb3          	add	s7,s6,s4
   11a2c:	00ebfbb3          	and	s7,s7,a4
   11a30:	417787b3          	sub	a5,a5,s7
   11a34:	00e7fbb3          	and	s7,a5,a4
   11a38:	000b8593          	mv	a1,s7
   11a3c:	00090513          	mv	a0,s2
   11a40:	22d000ef          	jal	ra,1246c <_sbrk_r>
   11a44:	fff00793          	li	a5,-1
   11a48:	00000713          	li	a4,0
   11a4c:	b8f50ee3          	beq	a0,a5,115e8 <_malloc_r+0x28c>
   11a50:	41650533          	sub	a0,a0,s6
   11a54:	000b871b          	sext.w	a4,s7
   11a58:	01750a33          	add	s4,a0,s7
   11a5c:	b8dff06f          	j	115e8 <_malloc_r+0x28c>
   11a60:	05400693          	li	a3,84
   11a64:	08e6e863          	bltu	a3,a4,11af4 <_malloc_r+0x798>
   11a68:	00c7d713          	srli	a4,a5,0xc
   11a6c:	0007071b          	sext.w	a4,a4
   11a70:	06f7059b          	addiw	a1,a4,111
   11a74:	0015959b          	slliw	a1,a1,0x1
   11a78:	06e7069b          	addiw	a3,a4,110
   11a7c:	00359593          	slli	a1,a1,0x3
   11a80:	de9ff06f          	j	11868 <_malloc_r+0x50c>
   11a84:	15400713          	li	a4,340
   11a88:	08f76863          	bltu	a4,a5,11b18 <_malloc_r+0x7bc>
   11a8c:	00f4d513          	srli	a0,s1,0xf
   11a90:	0005051b          	sext.w	a0,a0
   11a94:	0785061b          	addiw	a2,a0,120
   11a98:	0016169b          	slliw	a3,a2,0x1
   11a9c:	0775051b          	addiw	a0,a0,119
   11aa0:	00369693          	slli	a3,a3,0x3
   11aa4:	9e9ff06f          	j	1148c <_malloc_r+0x130>
   11aa8:	7d018c93          	addi	s9,gp,2000 # 15b08 <__malloc_current_mallinfo>
   11aac:	000ca783          	lw	a5,0(s9)
   11ab0:	014786bb          	addw	a3,a5,s4
   11ab4:	7cd1a823          	sw	a3,2000(gp) # 15b08 <__malloc_current_mallinfo>
   11ab8:	ac9ff06f          	j	11580 <_malloc_r+0x224>
   11abc:	034b9713          	slli	a4,s7,0x34
   11ac0:	ac0710e3          	bnez	a4,11580 <_malloc_r+0x224>
   11ac4:	0109b403          	ld	s0,16(s3)
   11ac8:	014a8a33          	add	s4,s5,s4
   11acc:	001a6a13          	ori	s4,s4,1
   11ad0:	01443423          	sd	s4,8(s0)
   11ad4:	b71ff06f          	j	11644 <_malloc_r+0x2e8>
   11ad8:	7761b423          	sd	s6,1896(gp) # 15aa0 <__malloc_sbrk_base>
   11adc:	abdff06f          	j	11598 <_malloc_r+0x23c>
   11ae0:	000b0413          	mv	s0,s6
   11ae4:	b61ff06f          	j	11644 <_malloc_r+0x2e8>
   11ae8:	00100793          	li	a5,1
   11aec:	00fb3423          	sd	a5,8(s6)
   11af0:	e89ff06f          	j	11978 <_malloc_r+0x61c>
   11af4:	15400693          	li	a3,340
   11af8:	06e6ea63          	bltu	a3,a4,11b6c <_malloc_r+0x810>
   11afc:	00f7d713          	srli	a4,a5,0xf
   11b00:	0007071b          	sext.w	a4,a4
   11b04:	0787059b          	addiw	a1,a4,120
   11b08:	0015959b          	slliw	a1,a1,0x1
   11b0c:	0777069b          	addiw	a3,a4,119
   11b10:	00359593          	slli	a1,a1,0x3
   11b14:	d55ff06f          	j	11868 <_malloc_r+0x50c>
   11b18:	55400713          	li	a4,1364
   11b1c:	06f76a63          	bltu	a4,a5,11b90 <_malloc_r+0x834>
   11b20:	0124d513          	srli	a0,s1,0x12
   11b24:	0005051b          	sext.w	a0,a0
   11b28:	07d5061b          	addiw	a2,a0,125
   11b2c:	0016169b          	slliw	a3,a2,0x1
   11b30:	07c5051b          	addiw	a0,a0,124
   11b34:	00369693          	slli	a3,a3,0x3
   11b38:	955ff06f          	j	1148c <_malloc_r+0x130>
   11b3c:	ff0b8b93          	addi	s7,s7,-16
   11b40:	017c0a33          	add	s4,s8,s7
   11b44:	416a0a33          	sub	s4,s4,s6
   11b48:	00000713          	li	a4,0
   11b4c:	a9dff06f          	j	115e8 <_malloc_r+0x28c>
   11b50:	01040593          	addi	a1,s0,16
   11b54:	00090513          	mv	a0,s2
   11b58:	234010ef          	jal	ra,12d8c <_free_r>
   11b5c:	0109b403          	ld	s0,16(s3)
   11b60:	000ca783          	lw	a5,0(s9)
   11b64:	00843a03          	ld	s4,8(s0)
   11b68:	addff06f          	j	11644 <_malloc_r+0x2e8>
   11b6c:	55400693          	li	a3,1364
   11b70:	02e6e863          	bltu	a3,a4,11ba0 <_malloc_r+0x844>
   11b74:	0127d713          	srli	a4,a5,0x12
   11b78:	0007071b          	sext.w	a4,a4
   11b7c:	07d7059b          	addiw	a1,a4,125
   11b80:	0015959b          	slliw	a1,a1,0x1
   11b84:	07c7069b          	addiw	a3,a4,124
   11b88:	00359593          	slli	a1,a1,0x3
   11b8c:	cddff06f          	j	11868 <_malloc_r+0x50c>
   11b90:	7f000693          	li	a3,2032
   11b94:	07f00613          	li	a2,127
   11b98:	07e00513          	li	a0,126
   11b9c:	8f1ff06f          	j	1148c <_malloc_r+0x130>
   11ba0:	7f000593          	li	a1,2032
   11ba4:	07e00693          	li	a3,126
   11ba8:	cc1ff06f          	j	11868 <_malloc_r+0x50c>
   11bac:	0089b783          	ld	a5,8(s3)
   11bb0:	e1dff06f          	j	119cc <_malloc_r+0x670>

0000000000011bb4 <memchr>:
   11bb4:	00757793          	andi	a5,a0,7
   11bb8:	0ff5f813          	andi	a6,a1,255
   11bbc:	0e078063          	beqz	a5,11c9c <memchr+0xe8>
   11bc0:	fff60793          	addi	a5,a2,-1
   11bc4:	04060e63          	beqz	a2,11c20 <memchr+0x6c>
   11bc8:	00054703          	lbu	a4,0(a0)
   11bcc:	05070c63          	beq	a4,a6,11c24 <memchr+0x70>
   11bd0:	fff00693          	li	a3,-1
   11bd4:	0140006f          	j	11be8 <memchr+0x34>
   11bd8:	fff78793          	addi	a5,a5,-1
   11bdc:	04d78263          	beq	a5,a3,11c20 <memchr+0x6c>
   11be0:	00054703          	lbu	a4,0(a0)
   11be4:	05070063          	beq	a4,a6,11c24 <memchr+0x70>
   11be8:	00150513          	addi	a0,a0,1
   11bec:	00757713          	andi	a4,a0,7
   11bf0:	fe0714e3          	bnez	a4,11bd8 <memchr+0x24>
   11bf4:	00700713          	li	a4,7
   11bf8:	02f76863          	bltu	a4,a5,11c28 <memchr+0x74>
   11bfc:	02078263          	beqz	a5,11c20 <memchr+0x6c>
   11c00:	00054703          	lbu	a4,0(a0)
   11c04:	03070063          	beq	a4,a6,11c24 <memchr+0x70>
   11c08:	00f507b3          	add	a5,a0,a5
   11c0c:	00c0006f          	j	11c18 <memchr+0x64>
   11c10:	00054703          	lbu	a4,0(a0)
   11c14:	01070863          	beq	a4,a6,11c24 <memchr+0x70>
   11c18:	00150513          	addi	a0,a0,1
   11c1c:	fea79ae3          	bne	a5,a0,11c10 <memchr+0x5c>
   11c20:	00000513          	li	a0,0
   11c24:	00008067          	ret
   11c28:	000106b7          	lui	a3,0x10
   11c2c:	0085971b          	slliw	a4,a1,0x8
   11c30:	fff68693          	addi	a3,a3,-1 # ffff <main-0xb1>
   11c34:	00d77733          	and	a4,a4,a3
   11c38:	0ff5f593          	andi	a1,a1,255
   11c3c:	00b765b3          	or	a1,a4,a1
   11c40:	0005859b          	sext.w	a1,a1
   11c44:	00004697          	auipc	a3,0x4
   11c48:	e3468693          	addi	a3,a3,-460 # 15a78 <__SDATA_BEGIN__+0x8>
   11c4c:	01059613          	slli	a2,a1,0x10
   11c50:	0006b883          	ld	a7,0(a3)
   11c54:	00004697          	auipc	a3,0x4
   11c58:	e2c68693          	addi	a3,a3,-468 # 15a80 <__SDATA_BEGIN__+0x10>
   11c5c:	00b66733          	or	a4,a2,a1
   11c60:	0006b583          	ld	a1,0(a3)
   11c64:	02071613          	slli	a2,a4,0x20
   11c68:	00e66633          	or	a2,a2,a4
   11c6c:	00700313          	li	t1,7
   11c70:	00053703          	ld	a4,0(a0)
   11c74:	00e64733          	xor	a4,a2,a4
   11c78:	011706b3          	add	a3,a4,a7
   11c7c:	fff74713          	not	a4,a4
   11c80:	00e6f733          	and	a4,a3,a4
   11c84:	00b77733          	and	a4,a4,a1
   11c88:	f6071ce3          	bnez	a4,11c00 <memchr+0x4c>
   11c8c:	ff878793          	addi	a5,a5,-8
   11c90:	00850513          	addi	a0,a0,8
   11c94:	fcf36ee3          	bltu	t1,a5,11c70 <memchr+0xbc>
   11c98:	f65ff06f          	j	11bfc <memchr+0x48>
   11c9c:	00060793          	mv	a5,a2
   11ca0:	f55ff06f          	j	11bf4 <memchr+0x40>

0000000000011ca4 <memcpy>:
   11ca4:	00a5c7b3          	xor	a5,a1,a0
   11ca8:	0077f793          	andi	a5,a5,7
   11cac:	00c508b3          	add	a7,a0,a2
   11cb0:	06079263          	bnez	a5,11d14 <memcpy+0x70>
   11cb4:	00700793          	li	a5,7
   11cb8:	04c7fe63          	bgeu	a5,a2,11d14 <memcpy+0x70>
   11cbc:	00757793          	andi	a5,a0,7
   11cc0:	00050713          	mv	a4,a0
   11cc4:	06079863          	bnez	a5,11d34 <memcpy+0x90>
   11cc8:	ff88f613          	andi	a2,a7,-8
   11ccc:	fc060793          	addi	a5,a2,-64
   11cd0:	08f76c63          	bltu	a4,a5,11d68 <memcpy+0xc4>
   11cd4:	02c77c63          	bgeu	a4,a2,11d0c <memcpy+0x68>
   11cd8:	00058693          	mv	a3,a1
   11cdc:	00070793          	mv	a5,a4
   11ce0:	0006b803          	ld	a6,0(a3)
   11ce4:	00878793          	addi	a5,a5,8
   11ce8:	00868693          	addi	a3,a3,8
   11cec:	ff07bc23          	sd	a6,-8(a5)
   11cf0:	fec7e8e3          	bltu	a5,a2,11ce0 <memcpy+0x3c>
   11cf4:	fff60793          	addi	a5,a2,-1
   11cf8:	40e787b3          	sub	a5,a5,a4
   11cfc:	ff87f793          	andi	a5,a5,-8
   11d00:	00878793          	addi	a5,a5,8
   11d04:	00f70733          	add	a4,a4,a5
   11d08:	00f585b3          	add	a1,a1,a5
   11d0c:	01176863          	bltu	a4,a7,11d1c <memcpy+0x78>
   11d10:	00008067          	ret
   11d14:	00050713          	mv	a4,a0
   11d18:	ff157ce3          	bgeu	a0,a7,11d10 <memcpy+0x6c>
   11d1c:	0005c783          	lbu	a5,0(a1)
   11d20:	00170713          	addi	a4,a4,1
   11d24:	00158593          	addi	a1,a1,1
   11d28:	fef70fa3          	sb	a5,-1(a4)
   11d2c:	ff1768e3          	bltu	a4,a7,11d1c <memcpy+0x78>
   11d30:	00008067          	ret
   11d34:	0005c683          	lbu	a3,0(a1)
   11d38:	00170713          	addi	a4,a4,1
   11d3c:	00777793          	andi	a5,a4,7
   11d40:	fed70fa3          	sb	a3,-1(a4)
   11d44:	00158593          	addi	a1,a1,1
   11d48:	f80780e3          	beqz	a5,11cc8 <memcpy+0x24>
   11d4c:	0005c683          	lbu	a3,0(a1)
   11d50:	00170713          	addi	a4,a4,1
   11d54:	00777793          	andi	a5,a4,7
   11d58:	fed70fa3          	sb	a3,-1(a4)
   11d5c:	00158593          	addi	a1,a1,1
   11d60:	fc079ae3          	bnez	a5,11d34 <memcpy+0x90>
   11d64:	f65ff06f          	j	11cc8 <memcpy+0x24>
   11d68:	0005b683          	ld	a3,0(a1)
   11d6c:	0085b283          	ld	t0,8(a1)
   11d70:	0105bf83          	ld	t6,16(a1)
   11d74:	0185bf03          	ld	t5,24(a1)
   11d78:	0205be83          	ld	t4,32(a1)
   11d7c:	0285be03          	ld	t3,40(a1)
   11d80:	0305b303          	ld	t1,48(a1)
   11d84:	0385b803          	ld	a6,56(a1)
   11d88:	04858593          	addi	a1,a1,72
   11d8c:	00d73023          	sd	a3,0(a4)
   11d90:	ff85b683          	ld	a3,-8(a1)
   11d94:	00573423          	sd	t0,8(a4)
   11d98:	01f73823          	sd	t6,16(a4)
   11d9c:	01e73c23          	sd	t5,24(a4)
   11da0:	03d73023          	sd	t4,32(a4)
   11da4:	03c73423          	sd	t3,40(a4)
   11da8:	02673823          	sd	t1,48(a4)
   11dac:	03073c23          	sd	a6,56(a4)
   11db0:	04870713          	addi	a4,a4,72
   11db4:	fed73c23          	sd	a3,-8(a4)
   11db8:	faf768e3          	bltu	a4,a5,11d68 <memcpy+0xc4>
   11dbc:	f19ff06f          	j	11cd4 <memcpy+0x30>

0000000000011dc0 <memmove>:
   11dc0:	02a5f663          	bgeu	a1,a0,11dec <memmove+0x2c>
   11dc4:	00c587b3          	add	a5,a1,a2
   11dc8:	02f57263          	bgeu	a0,a5,11dec <memmove+0x2c>
   11dcc:	00c50733          	add	a4,a0,a2
   11dd0:	0e060a63          	beqz	a2,11ec4 <memmove+0x104>
   11dd4:	fff78793          	addi	a5,a5,-1
   11dd8:	0007c683          	lbu	a3,0(a5)
   11ddc:	fff70713          	addi	a4,a4,-1
   11de0:	00d70023          	sb	a3,0(a4)
   11de4:	fef598e3          	bne	a1,a5,11dd4 <memmove+0x14>
   11de8:	00008067          	ret
   11dec:	01f00793          	li	a5,31
   11df0:	02c7e863          	bltu	a5,a2,11e20 <memmove+0x60>
   11df4:	00050793          	mv	a5,a0
   11df8:	fff60693          	addi	a3,a2,-1
   11dfc:	0c060c63          	beqz	a2,11ed4 <memmove+0x114>
   11e00:	00168693          	addi	a3,a3,1
   11e04:	00d786b3          	add	a3,a5,a3
   11e08:	00158593          	addi	a1,a1,1
   11e0c:	fff5c703          	lbu	a4,-1(a1)
   11e10:	00178793          	addi	a5,a5,1
   11e14:	fee78fa3          	sb	a4,-1(a5)
   11e18:	fed798e3          	bne	a5,a3,11e08 <memmove+0x48>
   11e1c:	00008067          	ret
   11e20:	00a5e7b3          	or	a5,a1,a0
   11e24:	0077f793          	andi	a5,a5,7
   11e28:	0a079063          	bnez	a5,11ec8 <memmove+0x108>
   11e2c:	fe060893          	addi	a7,a2,-32
   11e30:	fe08f893          	andi	a7,a7,-32
   11e34:	02088893          	addi	a7,a7,32
   11e38:	01150833          	add	a6,a0,a7
   11e3c:	00058713          	mv	a4,a1
   11e40:	00050793          	mv	a5,a0
   11e44:	00073683          	ld	a3,0(a4)
   11e48:	02078793          	addi	a5,a5,32
   11e4c:	02070713          	addi	a4,a4,32
   11e50:	fed7b023          	sd	a3,-32(a5)
   11e54:	fe873683          	ld	a3,-24(a4)
   11e58:	fed7b423          	sd	a3,-24(a5)
   11e5c:	ff073683          	ld	a3,-16(a4)
   11e60:	fed7b823          	sd	a3,-16(a5)
   11e64:	ff873683          	ld	a3,-8(a4)
   11e68:	fed7bc23          	sd	a3,-8(a5)
   11e6c:	fcf81ce3          	bne	a6,a5,11e44 <memmove+0x84>
   11e70:	01867713          	andi	a4,a2,24
   11e74:	011585b3          	add	a1,a1,a7
   11e78:	01f67813          	andi	a6,a2,31
   11e7c:	04070e63          	beqz	a4,11ed8 <memmove+0x118>
   11e80:	00058713          	mv	a4,a1
   11e84:	00078893          	mv	a7,a5
   11e88:	00700e13          	li	t3,7
   11e8c:	00870713          	addi	a4,a4,8
   11e90:	ff873303          	ld	t1,-8(a4)
   11e94:	00888893          	addi	a7,a7,8
   11e98:	40e806b3          	sub	a3,a6,a4
   11e9c:	fe68bc23          	sd	t1,-8(a7)
   11ea0:	00d586b3          	add	a3,a1,a3
   11ea4:	fede64e3          	bltu	t3,a3,11e8c <memmove+0xcc>
   11ea8:	ff880713          	addi	a4,a6,-8
   11eac:	ff877713          	andi	a4,a4,-8
   11eb0:	00870713          	addi	a4,a4,8
   11eb4:	00767613          	andi	a2,a2,7
   11eb8:	00e787b3          	add	a5,a5,a4
   11ebc:	00e585b3          	add	a1,a1,a4
   11ec0:	f39ff06f          	j	11df8 <memmove+0x38>
   11ec4:	00008067          	ret
   11ec8:	fff60693          	addi	a3,a2,-1
   11ecc:	00050793          	mv	a5,a0
   11ed0:	f31ff06f          	j	11e00 <memmove+0x40>
   11ed4:	00008067          	ret
   11ed8:	00080613          	mv	a2,a6
   11edc:	f1dff06f          	j	11df8 <memmove+0x38>

0000000000011ee0 <__malloc_lock>:
   11ee0:	00008067          	ret

0000000000011ee4 <__malloc_unlock>:
   11ee4:	00008067          	ret

0000000000011ee8 <_realloc_r>:
   11ee8:	fb010113          	addi	sp,sp,-80
   11eec:	03213823          	sd	s2,48(sp)
   11ef0:	04113423          	sd	ra,72(sp)
   11ef4:	04813023          	sd	s0,64(sp)
   11ef8:	02913c23          	sd	s1,56(sp)
   11efc:	03313423          	sd	s3,40(sp)
   11f00:	03413023          	sd	s4,32(sp)
   11f04:	01513c23          	sd	s5,24(sp)
   11f08:	01613823          	sd	s6,16(sp)
   11f0c:	01713423          	sd	s7,8(sp)
   11f10:	01813023          	sd	s8,0(sp)
   11f14:	00060913          	mv	s2,a2
   11f18:	22058463          	beqz	a1,12140 <_realloc_r+0x258>
   11f1c:	00058a93          	mv	s5,a1
   11f20:	00050a13          	mv	s4,a0
   11f24:	fbdff0ef          	jal	ra,11ee0 <__malloc_lock>
   11f28:	ff8ab783          	ld	a5,-8(s5)
   11f2c:	01790413          	addi	s0,s2,23
   11f30:	02e00713          	li	a4,46
   11f34:	ff0a8b13          	addi	s6,s5,-16
   11f38:	ffc7f493          	andi	s1,a5,-4
   11f3c:	0e877a63          	bgeu	a4,s0,12030 <_realloc_r+0x148>
   11f40:	80000737          	lui	a4,0x80000
   11f44:	ff047413          	andi	s0,s0,-16
   11f48:	fff74713          	not	a4,a4
   11f4c:	0e876663          	bltu	a4,s0,12038 <_realloc_r+0x150>
   11f50:	0f246463          	bltu	s0,s2,12038 <_realloc_r+0x150>
   11f54:	009b09b3          	add	s3,s6,s1
   11f58:	1884da63          	bge	s1,s0,120ec <_realloc_r+0x204>
   11f5c:	00003717          	auipc	a4,0x3
   11f60:	30470713          	addi	a4,a4,772 # 15260 <__malloc_av_>
   11f64:	01073683          	ld	a3,16(a4)
   11f68:	0089b703          	ld	a4,8(s3)
   11f6c:	23368c63          	beq	a3,s3,121a4 <_realloc_r+0x2bc>
   11f70:	ffe77693          	andi	a3,a4,-2
   11f74:	00d986b3          	add	a3,s3,a3
   11f78:	0086b683          	ld	a3,8(a3)
   11f7c:	0016f693          	andi	a3,a3,1
   11f80:	1a069263          	bnez	a3,12124 <_realloc_r+0x23c>
   11f84:	ffc77713          	andi	a4,a4,-4
   11f88:	00e486b3          	add	a3,s1,a4
   11f8c:	3486d063          	bge	a3,s0,122cc <_realloc_r+0x3e4>
   11f90:	0017f793          	andi	a5,a5,1
   11f94:	02079463          	bnez	a5,11fbc <_realloc_r+0xd4>
   11f98:	ff0abc03          	ld	s8,-16(s5)
   11f9c:	418b0c33          	sub	s8,s6,s8
   11fa0:	008c3783          	ld	a5,8(s8)
   11fa4:	ffc7f793          	andi	a5,a5,-4
   11fa8:	00e78733          	add	a4,a5,a4
   11fac:	00970bb3          	add	s7,a4,s1
   11fb0:	348bdc63          	bge	s7,s0,12308 <_realloc_r+0x420>
   11fb4:	00f48bb3          	add	s7,s1,a5
   11fb8:	0c8bd063          	bge	s7,s0,12078 <_realloc_r+0x190>
   11fbc:	00090593          	mv	a1,s2
   11fc0:	000a0513          	mv	a0,s4
   11fc4:	b98ff0ef          	jal	ra,1135c <_malloc_r>
   11fc8:	00050913          	mv	s2,a0
   11fcc:	04050c63          	beqz	a0,12024 <_realloc_r+0x13c>
   11fd0:	ff8ab783          	ld	a5,-8(s5)
   11fd4:	ff050713          	addi	a4,a0,-16
   11fd8:	ffe7f793          	andi	a5,a5,-2
   11fdc:	00fb07b3          	add	a5,s6,a5
   11fe0:	30e78463          	beq	a5,a4,122e8 <_realloc_r+0x400>
   11fe4:	ff848613          	addi	a2,s1,-8
   11fe8:	04800793          	li	a5,72
   11fec:	30c7e863          	bltu	a5,a2,122fc <_realloc_r+0x414>
   11ff0:	02700713          	li	a4,39
   11ff4:	000ab683          	ld	a3,0(s5)
   11ff8:	26c76c63          	bltu	a4,a2,12270 <_realloc_r+0x388>
   11ffc:	00050793          	mv	a5,a0
   12000:	000a8713          	mv	a4,s5
   12004:	00d7b023          	sd	a3,0(a5)
   12008:	00873683          	ld	a3,8(a4)
   1200c:	00d7b423          	sd	a3,8(a5)
   12010:	01073703          	ld	a4,16(a4)
   12014:	00e7b823          	sd	a4,16(a5)
   12018:	000a8593          	mv	a1,s5
   1201c:	000a0513          	mv	a0,s4
   12020:	56d000ef          	jal	ra,12d8c <_free_r>
   12024:	000a0513          	mv	a0,s4
   12028:	ebdff0ef          	jal	ra,11ee4 <__malloc_unlock>
   1202c:	0180006f          	j	12044 <_realloc_r+0x15c>
   12030:	02000413          	li	s0,32
   12034:	f32470e3          	bgeu	s0,s2,11f54 <_realloc_r+0x6c>
   12038:	00c00793          	li	a5,12
   1203c:	00fa2023          	sw	a5,0(s4)
   12040:	00000913          	li	s2,0
   12044:	04813083          	ld	ra,72(sp)
   12048:	04013403          	ld	s0,64(sp)
   1204c:	00090513          	mv	a0,s2
   12050:	03813483          	ld	s1,56(sp)
   12054:	03013903          	ld	s2,48(sp)
   12058:	02813983          	ld	s3,40(sp)
   1205c:	02013a03          	ld	s4,32(sp)
   12060:	01813a83          	ld	s5,24(sp)
   12064:	01013b03          	ld	s6,16(sp)
   12068:	00813b83          	ld	s7,8(sp)
   1206c:	00013c03          	ld	s8,0(sp)
   12070:	05010113          	addi	sp,sp,80
   12074:	00008067          	ret
   12078:	018c3783          	ld	a5,24(s8)
   1207c:	010c3703          	ld	a4,16(s8)
   12080:	ff848613          	addi	a2,s1,-8
   12084:	04800693          	li	a3,72
   12088:	00f73c23          	sd	a5,24(a4)
   1208c:	00e7b823          	sd	a4,16(a5)
   12090:	010c0913          	addi	s2,s8,16
   12094:	017c09b3          	add	s3,s8,s7
   12098:	30c6e063          	bltu	a3,a2,12398 <_realloc_r+0x4b0>
   1209c:	02700593          	li	a1,39
   120a0:	000ab703          	ld	a4,0(s5)
   120a4:	00090793          	mv	a5,s2
   120a8:	02c5f263          	bgeu	a1,a2,120cc <_realloc_r+0x1e4>
   120ac:	00ec3823          	sd	a4,16(s8)
   120b0:	008ab703          	ld	a4,8(s5)
   120b4:	03700793          	li	a5,55
   120b8:	00ec3c23          	sd	a4,24(s8)
   120bc:	32c7ee63          	bltu	a5,a2,123f8 <_realloc_r+0x510>
   120c0:	010ab703          	ld	a4,16(s5)
   120c4:	020c0793          	addi	a5,s8,32
   120c8:	010a8a93          	addi	s5,s5,16
   120cc:	00e7b023          	sd	a4,0(a5)
   120d0:	008ab703          	ld	a4,8(s5)
   120d4:	000b8493          	mv	s1,s7
   120d8:	000c0b13          	mv	s6,s8
   120dc:	00e7b423          	sd	a4,8(a5)
   120e0:	010ab703          	ld	a4,16(s5)
   120e4:	00090a93          	mv	s5,s2
   120e8:	00e7b823          	sd	a4,16(a5)
   120ec:	008b3603          	ld	a2,8(s6)
   120f0:	408487b3          	sub	a5,s1,s0
   120f4:	01f00713          	li	a4,31
   120f8:	00167613          	andi	a2,a2,1
   120fc:	06f76c63          	bltu	a4,a5,12174 <_realloc_r+0x28c>
   12100:	00c4e633          	or	a2,s1,a2
   12104:	00cb3423          	sd	a2,8(s6)
   12108:	0089b783          	ld	a5,8(s3)
   1210c:	0017e793          	ori	a5,a5,1
   12110:	00f9b423          	sd	a5,8(s3)
   12114:	000a0513          	mv	a0,s4
   12118:	dcdff0ef          	jal	ra,11ee4 <__malloc_unlock>
   1211c:	000a8913          	mv	s2,s5
   12120:	f25ff06f          	j	12044 <_realloc_r+0x15c>
   12124:	0017f793          	andi	a5,a5,1
   12128:	e8079ae3          	bnez	a5,11fbc <_realloc_r+0xd4>
   1212c:	ff0abc03          	ld	s8,-16(s5)
   12130:	418b0c33          	sub	s8,s6,s8
   12134:	008c3783          	ld	a5,8(s8)
   12138:	ffc7f793          	andi	a5,a5,-4
   1213c:	e79ff06f          	j	11fb4 <_realloc_r+0xcc>
   12140:	04013403          	ld	s0,64(sp)
   12144:	04813083          	ld	ra,72(sp)
   12148:	03813483          	ld	s1,56(sp)
   1214c:	03013903          	ld	s2,48(sp)
   12150:	02813983          	ld	s3,40(sp)
   12154:	02013a03          	ld	s4,32(sp)
   12158:	01813a83          	ld	s5,24(sp)
   1215c:	01013b03          	ld	s6,16(sp)
   12160:	00813b83          	ld	s7,8(sp)
   12164:	00013c03          	ld	s8,0(sp)
   12168:	00060593          	mv	a1,a2
   1216c:	05010113          	addi	sp,sp,80
   12170:	9ecff06f          	j	1135c <_malloc_r>
   12174:	00c46633          	or	a2,s0,a2
   12178:	00cb3423          	sd	a2,8(s6)
   1217c:	008b05b3          	add	a1,s6,s0
   12180:	0017e793          	ori	a5,a5,1
   12184:	00f5b423          	sd	a5,8(a1)
   12188:	0089b783          	ld	a5,8(s3)
   1218c:	01058593          	addi	a1,a1,16
   12190:	000a0513          	mv	a0,s4
   12194:	0017e793          	ori	a5,a5,1
   12198:	00f9b423          	sd	a5,8(s3)
   1219c:	3f1000ef          	jal	ra,12d8c <_free_r>
   121a0:	f75ff06f          	j	12114 <_realloc_r+0x22c>
   121a4:	ffc77713          	andi	a4,a4,-4
   121a8:	00e486b3          	add	a3,s1,a4
   121ac:	02040613          	addi	a2,s0,32
   121b0:	0ec6d263          	bge	a3,a2,12294 <_realloc_r+0x3ac>
   121b4:	0017f793          	andi	a5,a5,1
   121b8:	e00792e3          	bnez	a5,11fbc <_realloc_r+0xd4>
   121bc:	ff0abc03          	ld	s8,-16(s5)
   121c0:	418b0c33          	sub	s8,s6,s8
   121c4:	008c3783          	ld	a5,8(s8)
   121c8:	ffc7f793          	andi	a5,a5,-4
   121cc:	00e78733          	add	a4,a5,a4
   121d0:	009709b3          	add	s3,a4,s1
   121d4:	dec9c0e3          	blt	s3,a2,11fb4 <_realloc_r+0xcc>
   121d8:	018c3783          	ld	a5,24(s8)
   121dc:	010c3703          	ld	a4,16(s8)
   121e0:	ff848613          	addi	a2,s1,-8
   121e4:	04800693          	li	a3,72
   121e8:	00f73c23          	sd	a5,24(a4)
   121ec:	00e7b823          	sd	a4,16(a5)
   121f0:	010c0913          	addi	s2,s8,16
   121f4:	22c6e463          	bltu	a3,a2,1241c <_realloc_r+0x534>
   121f8:	02700593          	li	a1,39
   121fc:	000ab703          	ld	a4,0(s5)
   12200:	00090793          	mv	a5,s2
   12204:	02c5f263          	bgeu	a1,a2,12228 <_realloc_r+0x340>
   12208:	00ec3823          	sd	a4,16(s8)
   1220c:	008ab703          	ld	a4,8(s5)
   12210:	03700793          	li	a5,55
   12214:	00ec3c23          	sd	a4,24(s8)
   12218:	20c7ea63          	bltu	a5,a2,1242c <_realloc_r+0x544>
   1221c:	010ab703          	ld	a4,16(s5)
   12220:	020c0793          	addi	a5,s8,32
   12224:	010a8a93          	addi	s5,s5,16
   12228:	00e7b023          	sd	a4,0(a5)
   1222c:	008ab703          	ld	a4,8(s5)
   12230:	00e7b423          	sd	a4,8(a5)
   12234:	010ab703          	ld	a4,16(s5)
   12238:	00e7b823          	sd	a4,16(a5)
   1223c:	008c0733          	add	a4,s8,s0
   12240:	408987b3          	sub	a5,s3,s0
   12244:	00003697          	auipc	a3,0x3
   12248:	02e6b623          	sd	a4,44(a3) # 15270 <__malloc_av_+0x10>
   1224c:	0017e793          	ori	a5,a5,1
   12250:	00f73423          	sd	a5,8(a4)
   12254:	008c3783          	ld	a5,8(s8)
   12258:	000a0513          	mv	a0,s4
   1225c:	0017f793          	andi	a5,a5,1
   12260:	0087e433          	or	s0,a5,s0
   12264:	008c3423          	sd	s0,8(s8)
   12268:	c7dff0ef          	jal	ra,11ee4 <__malloc_unlock>
   1226c:	dd9ff06f          	j	12044 <_realloc_r+0x15c>
   12270:	00d53023          	sd	a3,0(a0)
   12274:	008ab683          	ld	a3,8(s5)
   12278:	03700713          	li	a4,55
   1227c:	00d53423          	sd	a3,8(a0)
   12280:	12c76a63          	bltu	a4,a2,123b4 <_realloc_r+0x4cc>
   12284:	010a8713          	addi	a4,s5,16
   12288:	01050793          	addi	a5,a0,16
   1228c:	010ab683          	ld	a3,16(s5)
   12290:	d75ff06f          	j	12004 <_realloc_r+0x11c>
   12294:	008b0b33          	add	s6,s6,s0
   12298:	408687b3          	sub	a5,a3,s0
   1229c:	00003717          	auipc	a4,0x3
   122a0:	fd673a23          	sd	s6,-44(a4) # 15270 <__malloc_av_+0x10>
   122a4:	0017e793          	ori	a5,a5,1
   122a8:	00fb3423          	sd	a5,8(s6)
   122ac:	ff8ab783          	ld	a5,-8(s5)
   122b0:	000a0513          	mv	a0,s4
   122b4:	000a8913          	mv	s2,s5
   122b8:	0017f793          	andi	a5,a5,1
   122bc:	0087e433          	or	s0,a5,s0
   122c0:	fe8abc23          	sd	s0,-8(s5)
   122c4:	c21ff0ef          	jal	ra,11ee4 <__malloc_unlock>
   122c8:	d7dff06f          	j	12044 <_realloc_r+0x15c>
   122cc:	0189b783          	ld	a5,24(s3)
   122d0:	0109b703          	ld	a4,16(s3)
   122d4:	00068493          	mv	s1,a3
   122d8:	00db09b3          	add	s3,s6,a3
   122dc:	00f73c23          	sd	a5,24(a4)
   122e0:	00e7b823          	sd	a4,16(a5)
   122e4:	e09ff06f          	j	120ec <_realloc_r+0x204>
   122e8:	ff853783          	ld	a5,-8(a0)
   122ec:	ffc7f793          	andi	a5,a5,-4
   122f0:	00f484b3          	add	s1,s1,a5
   122f4:	009b09b3          	add	s3,s6,s1
   122f8:	df5ff06f          	j	120ec <_realloc_r+0x204>
   122fc:	000a8593          	mv	a1,s5
   12300:	ac1ff0ef          	jal	ra,11dc0 <memmove>
   12304:	d15ff06f          	j	12018 <_realloc_r+0x130>
   12308:	0189b783          	ld	a5,24(s3)
   1230c:	0109b703          	ld	a4,16(s3)
   12310:	ff848613          	addi	a2,s1,-8
   12314:	04800693          	li	a3,72
   12318:	00f73c23          	sd	a5,24(a4)
   1231c:	00e7b823          	sd	a4,16(a5)
   12320:	010c3703          	ld	a4,16(s8)
   12324:	018c3783          	ld	a5,24(s8)
   12328:	010c0913          	addi	s2,s8,16
   1232c:	017c09b3          	add	s3,s8,s7
   12330:	00f73c23          	sd	a5,24(a4)
   12334:	00e7b823          	sd	a4,16(a5)
   12338:	06c6e063          	bltu	a3,a2,12398 <_realloc_r+0x4b0>
   1233c:	02700693          	li	a3,39
   12340:	000ab703          	ld	a4,0(s5)
   12344:	00090793          	mv	a5,s2
   12348:	d8c6f2e3          	bgeu	a3,a2,120cc <_realloc_r+0x1e4>
   1234c:	00ec3823          	sd	a4,16(s8)
   12350:	008ab703          	ld	a4,8(s5)
   12354:	03700793          	li	a5,55
   12358:	00ec3c23          	sd	a4,24(s8)
   1235c:	010ab703          	ld	a4,16(s5)
   12360:	d6c7f2e3          	bgeu	a5,a2,120c4 <_realloc_r+0x1dc>
   12364:	02ec3023          	sd	a4,32(s8)
   12368:	018ab703          	ld	a4,24(s5)
   1236c:	04800793          	li	a5,72
   12370:	02ec3423          	sd	a4,40(s8)
   12374:	020ab703          	ld	a4,32(s5)
   12378:	08f61c63          	bne	a2,a5,12410 <_realloc_r+0x528>
   1237c:	02ec3823          	sd	a4,48(s8)
   12380:	028ab703          	ld	a4,40(s5)
   12384:	040c0793          	addi	a5,s8,64
   12388:	030a8a93          	addi	s5,s5,48
   1238c:	02ec3c23          	sd	a4,56(s8)
   12390:	000ab703          	ld	a4,0(s5)
   12394:	d39ff06f          	j	120cc <_realloc_r+0x1e4>
   12398:	000a8593          	mv	a1,s5
   1239c:	00090513          	mv	a0,s2
   123a0:	a21ff0ef          	jal	ra,11dc0 <memmove>
   123a4:	00090a93          	mv	s5,s2
   123a8:	000b8493          	mv	s1,s7
   123ac:	000c0b13          	mv	s6,s8
   123b0:	d3dff06f          	j	120ec <_realloc_r+0x204>
   123b4:	010ab703          	ld	a4,16(s5)
   123b8:	00e53823          	sd	a4,16(a0)
   123bc:	018ab703          	ld	a4,24(s5)
   123c0:	00e53c23          	sd	a4,24(a0)
   123c4:	00f60a63          	beq	a2,a5,123d8 <_realloc_r+0x4f0>
   123c8:	020a8713          	addi	a4,s5,32
   123cc:	02050793          	addi	a5,a0,32
   123d0:	020ab683          	ld	a3,32(s5)
   123d4:	c31ff06f          	j	12004 <_realloc_r+0x11c>
   123d8:	020ab683          	ld	a3,32(s5)
   123dc:	030a8713          	addi	a4,s5,48
   123e0:	03050793          	addi	a5,a0,48
   123e4:	02d53023          	sd	a3,32(a0)
   123e8:	028ab683          	ld	a3,40(s5)
   123ec:	02d53423          	sd	a3,40(a0)
   123f0:	030ab683          	ld	a3,48(s5)
   123f4:	c11ff06f          	j	12004 <_realloc_r+0x11c>
   123f8:	010ab783          	ld	a5,16(s5)
   123fc:	02fc3023          	sd	a5,32(s8)
   12400:	018ab783          	ld	a5,24(s5)
   12404:	02fc3423          	sd	a5,40(s8)
   12408:	020ab703          	ld	a4,32(s5)
   1240c:	f6d608e3          	beq	a2,a3,1237c <_realloc_r+0x494>
   12410:	030c0793          	addi	a5,s8,48
   12414:	020a8a93          	addi	s5,s5,32
   12418:	cb5ff06f          	j	120cc <_realloc_r+0x1e4>
   1241c:	000a8593          	mv	a1,s5
   12420:	00090513          	mv	a0,s2
   12424:	99dff0ef          	jal	ra,11dc0 <memmove>
   12428:	e15ff06f          	j	1223c <_realloc_r+0x354>
   1242c:	010ab783          	ld	a5,16(s5)
   12430:	02fc3023          	sd	a5,32(s8)
   12434:	018ab783          	ld	a5,24(s5)
   12438:	02fc3423          	sd	a5,40(s8)
   1243c:	020ab703          	ld	a4,32(s5)
   12440:	00d60863          	beq	a2,a3,12450 <_realloc_r+0x568>
   12444:	030c0793          	addi	a5,s8,48
   12448:	020a8a93          	addi	s5,s5,32
   1244c:	dddff06f          	j	12228 <_realloc_r+0x340>
   12450:	02ec3823          	sd	a4,48(s8)
   12454:	028ab703          	ld	a4,40(s5)
   12458:	040c0793          	addi	a5,s8,64
   1245c:	030a8a93          	addi	s5,s5,48
   12460:	02ec3c23          	sd	a4,56(s8)
   12464:	000ab703          	ld	a4,0(s5)
   12468:	dc1ff06f          	j	12228 <_realloc_r+0x340>

000000000001246c <_sbrk_r>:
   1246c:	ff010113          	addi	sp,sp,-16
   12470:	00813023          	sd	s0,0(sp)
   12474:	00050413          	mv	s0,a0
   12478:	00058513          	mv	a0,a1
   1247c:	00003797          	auipc	a5,0x3
   12480:	6a07aa23          	sw	zero,1716(a5) # 15b30 <errno>
   12484:	00113423          	sd	ra,8(sp)
   12488:	30c010ef          	jal	ra,13794 <_sbrk>
   1248c:	fff00793          	li	a5,-1
   12490:	00f50a63          	beq	a0,a5,124a4 <_sbrk_r+0x38>
   12494:	00813083          	ld	ra,8(sp)
   12498:	00013403          	ld	s0,0(sp)
   1249c:	01010113          	addi	sp,sp,16
   124a0:	00008067          	ret
   124a4:	00003797          	auipc	a5,0x3
   124a8:	68c78793          	addi	a5,a5,1676 # 15b30 <errno>
   124ac:	0007a783          	lw	a5,0(a5)
   124b0:	fe0782e3          	beqz	a5,12494 <_sbrk_r+0x28>
   124b4:	00f42023          	sw	a5,0(s0)
   124b8:	00813083          	ld	ra,8(sp)
   124bc:	00013403          	ld	s0,0(sp)
   124c0:	01010113          	addi	sp,sp,16
   124c4:	00008067          	ret

00000000000124c8 <__sread>:
   124c8:	ff010113          	addi	sp,sp,-16
   124cc:	00813023          	sd	s0,0(sp)
   124d0:	00058413          	mv	s0,a1
   124d4:	01259583          	lh	a1,18(a1)
   124d8:	00113423          	sd	ra,8(sp)
   124dc:	651000ef          	jal	ra,1332c <_read_r>
   124e0:	02054063          	bltz	a0,12500 <__sread+0x38>
   124e4:	09043783          	ld	a5,144(s0)
   124e8:	00813083          	ld	ra,8(sp)
   124ec:	00a787b3          	add	a5,a5,a0
   124f0:	08f43823          	sd	a5,144(s0)
   124f4:	00013403          	ld	s0,0(sp)
   124f8:	01010113          	addi	sp,sp,16
   124fc:	00008067          	ret
   12500:	01045783          	lhu	a5,16(s0)
   12504:	fffff737          	lui	a4,0xfffff
   12508:	fff70713          	addi	a4,a4,-1 # ffffffffffffefff <__BSS_END__+0xfffffffffffe94c7>
   1250c:	00e7f7b3          	and	a5,a5,a4
   12510:	00f41823          	sh	a5,16(s0)
   12514:	00813083          	ld	ra,8(sp)
   12518:	00013403          	ld	s0,0(sp)
   1251c:	01010113          	addi	sp,sp,16
   12520:	00008067          	ret

0000000000012524 <__seofread>:
   12524:	00000513          	li	a0,0
   12528:	00008067          	ret

000000000001252c <__swrite>:
   1252c:	01059783          	lh	a5,16(a1)
   12530:	fd010113          	addi	sp,sp,-48
   12534:	02813023          	sd	s0,32(sp)
   12538:	00913c23          	sd	s1,24(sp)
   1253c:	01213823          	sd	s2,16(sp)
   12540:	01313423          	sd	s3,8(sp)
   12544:	02113423          	sd	ra,40(sp)
   12548:	1007f713          	andi	a4,a5,256
   1254c:	00058413          	mv	s0,a1
   12550:	00050493          	mv	s1,a0
   12554:	00060913          	mv	s2,a2
   12558:	00068993          	mv	s3,a3
   1255c:	01259583          	lh	a1,18(a1)
   12560:	02071e63          	bnez	a4,1259c <__swrite+0x70>
   12564:	fffff737          	lui	a4,0xfffff
   12568:	fff70713          	addi	a4,a4,-1 # ffffffffffffefff <__BSS_END__+0xfffffffffffe94c7>
   1256c:	00e7f7b3          	and	a5,a5,a4
   12570:	00f41823          	sh	a5,16(s0)
   12574:	02013403          	ld	s0,32(sp)
   12578:	02813083          	ld	ra,40(sp)
   1257c:	00098693          	mv	a3,s3
   12580:	00090613          	mv	a2,s2
   12584:	00813983          	ld	s3,8(sp)
   12588:	01013903          	ld	s2,16(sp)
   1258c:	00048513          	mv	a0,s1
   12590:	01813483          	ld	s1,24(sp)
   12594:	03010113          	addi	sp,sp,48
   12598:	08c0006f          	j	12624 <_write_r>
   1259c:	00200693          	li	a3,2
   125a0:	00000613          	li	a2,0
   125a4:	331000ef          	jal	ra,130d4 <_lseek_r>
   125a8:	01041783          	lh	a5,16(s0)
   125ac:	01241583          	lh	a1,18(s0)
   125b0:	fb5ff06f          	j	12564 <__swrite+0x38>

00000000000125b4 <__sseek>:
   125b4:	ff010113          	addi	sp,sp,-16
   125b8:	00813023          	sd	s0,0(sp)
   125bc:	00058413          	mv	s0,a1
   125c0:	01259583          	lh	a1,18(a1)
   125c4:	00113423          	sd	ra,8(sp)
   125c8:	30d000ef          	jal	ra,130d4 <_lseek_r>
   125cc:	fff00793          	li	a5,-1
   125d0:	02f50463          	beq	a0,a5,125f8 <__sseek+0x44>
   125d4:	01045783          	lhu	a5,16(s0)
   125d8:	00001737          	lui	a4,0x1
   125dc:	08a43823          	sd	a0,144(s0)
   125e0:	00e7e7b3          	or	a5,a5,a4
   125e4:	00f41823          	sh	a5,16(s0)
   125e8:	00813083          	ld	ra,8(sp)
   125ec:	00013403          	ld	s0,0(sp)
   125f0:	01010113          	addi	sp,sp,16
   125f4:	00008067          	ret
   125f8:	01045783          	lhu	a5,16(s0)
   125fc:	fffff737          	lui	a4,0xfffff
   12600:	fff70713          	addi	a4,a4,-1 # ffffffffffffefff <__BSS_END__+0xfffffffffffe94c7>
   12604:	00e7f7b3          	and	a5,a5,a4
   12608:	00f41823          	sh	a5,16(s0)
   1260c:	00813083          	ld	ra,8(sp)
   12610:	00013403          	ld	s0,0(sp)
   12614:	01010113          	addi	sp,sp,16
   12618:	00008067          	ret

000000000001261c <__sclose>:
   1261c:	01259583          	lh	a1,18(a1)
   12620:	1d40006f          	j	127f4 <_close_r>

0000000000012624 <_write_r>:
   12624:	00058793          	mv	a5,a1
   12628:	ff010113          	addi	sp,sp,-16
   1262c:	00813023          	sd	s0,0(sp)
   12630:	00060593          	mv	a1,a2
   12634:	00050413          	mv	s0,a0
   12638:	00068613          	mv	a2,a3
   1263c:	00078513          	mv	a0,a5
   12640:	00113423          	sd	ra,8(sp)
   12644:	00003797          	auipc	a5,0x3
   12648:	4e07a623          	sw	zero,1260(a5) # 15b30 <errno>
   1264c:	1e8010ef          	jal	ra,13834 <_write>
   12650:	fff00793          	li	a5,-1
   12654:	00f50a63          	beq	a0,a5,12668 <_write_r+0x44>
   12658:	00813083          	ld	ra,8(sp)
   1265c:	00013403          	ld	s0,0(sp)
   12660:	01010113          	addi	sp,sp,16
   12664:	00008067          	ret
   12668:	00003797          	auipc	a5,0x3
   1266c:	4c878793          	addi	a5,a5,1224 # 15b30 <errno>
   12670:	0007a783          	lw	a5,0(a5)
   12674:	fe0782e3          	beqz	a5,12658 <_write_r+0x34>
   12678:	00f42023          	sw	a5,0(s0)
   1267c:	00813083          	ld	ra,8(sp)
   12680:	00013403          	ld	s0,0(sp)
   12684:	01010113          	addi	sp,sp,16
   12688:	00008067          	ret

000000000001268c <__swsetup_r>:
   1268c:	76018793          	addi	a5,gp,1888 # 15a98 <_impure_ptr>
   12690:	0007b783          	ld	a5,0(a5)
   12694:	fe010113          	addi	sp,sp,-32
   12698:	00813823          	sd	s0,16(sp)
   1269c:	00913423          	sd	s1,8(sp)
   126a0:	00113c23          	sd	ra,24(sp)
   126a4:	00050493          	mv	s1,a0
   126a8:	00058413          	mv	s0,a1
   126ac:	00078663          	beqz	a5,126b8 <__swsetup_r+0x2c>
   126b0:	0507a703          	lw	a4,80(a5)
   126b4:	08070663          	beqz	a4,12740 <__swsetup_r+0xb4>
   126b8:	01041703          	lh	a4,16(s0)
   126bc:	03071793          	slli	a5,a4,0x30
   126c0:	0307d793          	srli	a5,a5,0x30
   126c4:	0087f693          	andi	a3,a5,8
   126c8:	08068a63          	beqz	a3,1275c <__swsetup_r+0xd0>
   126cc:	01843683          	ld	a3,24(s0)
   126d0:	0a068a63          	beqz	a3,12784 <__swsetup_r+0xf8>
   126d4:	0017f713          	andi	a4,a5,1
   126d8:	02070863          	beqz	a4,12708 <__swsetup_r+0x7c>
   126dc:	02042783          	lw	a5,32(s0)
   126e0:	00042623          	sw	zero,12(s0)
   126e4:	00000513          	li	a0,0
   126e8:	40f007bb          	negw	a5,a5
   126ec:	02f42423          	sw	a5,40(s0)
   126f0:	02068a63          	beqz	a3,12724 <__swsetup_r+0x98>
   126f4:	01813083          	ld	ra,24(sp)
   126f8:	01013403          	ld	s0,16(sp)
   126fc:	00813483          	ld	s1,8(sp)
   12700:	02010113          	addi	sp,sp,32
   12704:	00008067          	ret
   12708:	0027f793          	andi	a5,a5,2
   1270c:	00000713          	li	a4,0
   12710:	00079463          	bnez	a5,12718 <__swsetup_r+0x8c>
   12714:	02042703          	lw	a4,32(s0)
   12718:	00e42623          	sw	a4,12(s0)
   1271c:	00000513          	li	a0,0
   12720:	fc069ae3          	bnez	a3,126f4 <__swsetup_r+0x68>
   12724:	01041783          	lh	a5,16(s0)
   12728:	0807f713          	andi	a4,a5,128
   1272c:	fc0704e3          	beqz	a4,126f4 <__swsetup_r+0x68>
   12730:	0407e793          	ori	a5,a5,64
   12734:	00f41823          	sh	a5,16(s0)
   12738:	fff00513          	li	a0,-1
   1273c:	fb9ff06f          	j	126f4 <__swsetup_r+0x68>
   12740:	00078513          	mv	a0,a5
   12744:	d50fe0ef          	jal	ra,10c94 <__sinit>
   12748:	01041703          	lh	a4,16(s0)
   1274c:	03071793          	slli	a5,a4,0x30
   12750:	0307d793          	srli	a5,a5,0x30
   12754:	0087f693          	andi	a3,a5,8
   12758:	f6069ae3          	bnez	a3,126cc <__swsetup_r+0x40>
   1275c:	0107f693          	andi	a3,a5,16
   12760:	06068e63          	beqz	a3,127dc <__swsetup_r+0x150>
   12764:	0047f793          	andi	a5,a5,4
   12768:	04079063          	bnez	a5,127a8 <__swsetup_r+0x11c>
   1276c:	01843683          	ld	a3,24(s0)
   12770:	00876793          	ori	a5,a4,8
   12774:	00f41823          	sh	a5,16(s0)
   12778:	03079793          	slli	a5,a5,0x30
   1277c:	0307d793          	srli	a5,a5,0x30
   12780:	f4069ae3          	bnez	a3,126d4 <__swsetup_r+0x48>
   12784:	2807f713          	andi	a4,a5,640
   12788:	20000613          	li	a2,512
   1278c:	f4c704e3          	beq	a4,a2,126d4 <__swsetup_r+0x48>
   12790:	00040593          	mv	a1,s0
   12794:	00048513          	mv	a0,s1
   12798:	275000ef          	jal	ra,1320c <__smakebuf_r>
   1279c:	01045783          	lhu	a5,16(s0)
   127a0:	01843683          	ld	a3,24(s0)
   127a4:	f31ff06f          	j	126d4 <__swsetup_r+0x48>
   127a8:	05843583          	ld	a1,88(s0)
   127ac:	00058e63          	beqz	a1,127c8 <__swsetup_r+0x13c>
   127b0:	07440793          	addi	a5,s0,116
   127b4:	00f58863          	beq	a1,a5,127c4 <__swsetup_r+0x138>
   127b8:	00048513          	mv	a0,s1
   127bc:	5d0000ef          	jal	ra,12d8c <_free_r>
   127c0:	01041703          	lh	a4,16(s0)
   127c4:	04043c23          	sd	zero,88(s0)
   127c8:	01843683          	ld	a3,24(s0)
   127cc:	fdb77713          	andi	a4,a4,-37
   127d0:	00042423          	sw	zero,8(s0)
   127d4:	00d43023          	sd	a3,0(s0)
   127d8:	f99ff06f          	j	12770 <__swsetup_r+0xe4>
   127dc:	00900793          	li	a5,9
   127e0:	00f4a023          	sw	a5,0(s1)
   127e4:	04076713          	ori	a4,a4,64
   127e8:	00e41823          	sh	a4,16(s0)
   127ec:	fff00513          	li	a0,-1
   127f0:	f05ff06f          	j	126f4 <__swsetup_r+0x68>

00000000000127f4 <_close_r>:
   127f4:	ff010113          	addi	sp,sp,-16
   127f8:	00813023          	sd	s0,0(sp)
   127fc:	00050413          	mv	s0,a0
   12800:	00058513          	mv	a0,a1
   12804:	00003797          	auipc	a5,0x3
   12808:	3207a623          	sw	zero,812(a5) # 15b30 <errno>
   1280c:	00113423          	sd	ra,8(sp)
   12810:	595000ef          	jal	ra,135a4 <_close>
   12814:	fff00793          	li	a5,-1
   12818:	00f50a63          	beq	a0,a5,1282c <_close_r+0x38>
   1281c:	00813083          	ld	ra,8(sp)
   12820:	00013403          	ld	s0,0(sp)
   12824:	01010113          	addi	sp,sp,16
   12828:	00008067          	ret
   1282c:	00003797          	auipc	a5,0x3
   12830:	30478793          	addi	a5,a5,772 # 15b30 <errno>
   12834:	0007a783          	lw	a5,0(a5)
   12838:	fe0782e3          	beqz	a5,1281c <_close_r+0x28>
   1283c:	00f42023          	sw	a5,0(s0)
   12840:	00813083          	ld	ra,8(sp)
   12844:	00013403          	ld	s0,0(sp)
   12848:	01010113          	addi	sp,sp,16
   1284c:	00008067          	ret

0000000000012850 <_fclose_r>:
   12850:	fe010113          	addi	sp,sp,-32
   12854:	00113c23          	sd	ra,24(sp)
   12858:	00813823          	sd	s0,16(sp)
   1285c:	00913423          	sd	s1,8(sp)
   12860:	01213023          	sd	s2,0(sp)
   12864:	02058063          	beqz	a1,12884 <_fclose_r+0x34>
   12868:	00050493          	mv	s1,a0
   1286c:	00058413          	mv	s0,a1
   12870:	00050663          	beqz	a0,1287c <_fclose_r+0x2c>
   12874:	05052783          	lw	a5,80(a0)
   12878:	0a078c63          	beqz	a5,12930 <_fclose_r+0xe0>
   1287c:	01041783          	lh	a5,16(s0)
   12880:	02079263          	bnez	a5,128a4 <_fclose_r+0x54>
   12884:	01813083          	ld	ra,24(sp)
   12888:	01013403          	ld	s0,16(sp)
   1288c:	00000913          	li	s2,0
   12890:	00090513          	mv	a0,s2
   12894:	00813483          	ld	s1,8(sp)
   12898:	00013903          	ld	s2,0(sp)
   1289c:	02010113          	addi	sp,sp,32
   128a0:	00008067          	ret
   128a4:	00040593          	mv	a1,s0
   128a8:	00048513          	mv	a0,s1
   128ac:	0c4000ef          	jal	ra,12970 <__sflush_r>
   128b0:	05043783          	ld	a5,80(s0)
   128b4:	00050913          	mv	s2,a0
   128b8:	00078a63          	beqz	a5,128cc <_fclose_r+0x7c>
   128bc:	03043583          	ld	a1,48(s0)
   128c0:	00048513          	mv	a0,s1
   128c4:	000780e7          	jalr	a5
   128c8:	06054c63          	bltz	a0,12940 <_fclose_r+0xf0>
   128cc:	01045783          	lhu	a5,16(s0)
   128d0:	0807f793          	andi	a5,a5,128
   128d4:	06079e63          	bnez	a5,12950 <_fclose_r+0x100>
   128d8:	05843583          	ld	a1,88(s0)
   128dc:	00058c63          	beqz	a1,128f4 <_fclose_r+0xa4>
   128e0:	07440793          	addi	a5,s0,116
   128e4:	00f58663          	beq	a1,a5,128f0 <_fclose_r+0xa0>
   128e8:	00048513          	mv	a0,s1
   128ec:	4a0000ef          	jal	ra,12d8c <_free_r>
   128f0:	04043c23          	sd	zero,88(s0)
   128f4:	07843583          	ld	a1,120(s0)
   128f8:	00058863          	beqz	a1,12908 <_fclose_r+0xb8>
   128fc:	00048513          	mv	a0,s1
   12900:	48c000ef          	jal	ra,12d8c <_free_r>
   12904:	06043c23          	sd	zero,120(s0)
   12908:	b9cfe0ef          	jal	ra,10ca4 <__sfp_lock_acquire>
   1290c:	00041823          	sh	zero,16(s0)
   12910:	b98fe0ef          	jal	ra,10ca8 <__sfp_lock_release>
   12914:	01813083          	ld	ra,24(sp)
   12918:	01013403          	ld	s0,16(sp)
   1291c:	00090513          	mv	a0,s2
   12920:	00813483          	ld	s1,8(sp)
   12924:	00013903          	ld	s2,0(sp)
   12928:	02010113          	addi	sp,sp,32
   1292c:	00008067          	ret
   12930:	b64fe0ef          	jal	ra,10c94 <__sinit>
   12934:	01041783          	lh	a5,16(s0)
   12938:	f40786e3          	beqz	a5,12884 <_fclose_r+0x34>
   1293c:	f69ff06f          	j	128a4 <_fclose_r+0x54>
   12940:	01045783          	lhu	a5,16(s0)
   12944:	fff00913          	li	s2,-1
   12948:	0807f793          	andi	a5,a5,128
   1294c:	f80786e3          	beqz	a5,128d8 <_fclose_r+0x88>
   12950:	01843583          	ld	a1,24(s0)
   12954:	00048513          	mv	a0,s1
   12958:	434000ef          	jal	ra,12d8c <_free_r>
   1295c:	f7dff06f          	j	128d8 <_fclose_r+0x88>

0000000000012960 <fclose>:
   12960:	76018793          	addi	a5,gp,1888 # 15a98 <_impure_ptr>
   12964:	00050593          	mv	a1,a0
   12968:	0007b503          	ld	a0,0(a5)
   1296c:	ee5ff06f          	j	12850 <_fclose_r>

0000000000012970 <__sflush_r>:
   12970:	01059783          	lh	a5,16(a1)
   12974:	fd010113          	addi	sp,sp,-48
   12978:	02813023          	sd	s0,32(sp)
   1297c:	03079713          	slli	a4,a5,0x30
   12980:	03075713          	srli	a4,a4,0x30
   12984:	01313423          	sd	s3,8(sp)
   12988:	02113423          	sd	ra,40(sp)
   1298c:	00913c23          	sd	s1,24(sp)
   12990:	01213823          	sd	s2,16(sp)
   12994:	00877693          	andi	a3,a4,8
   12998:	00058413          	mv	s0,a1
   1299c:	00050993          	mv	s3,a0
   129a0:	10069a63          	bnez	a3,12ab4 <__sflush_r+0x144>
   129a4:	00001737          	lui	a4,0x1
   129a8:	80070713          	addi	a4,a4,-2048 # 800 <main-0xf8b0>
   129ac:	0085a683          	lw	a3,8(a1)
   129b0:	00e7e7b3          	or	a5,a5,a4
   129b4:	00f59823          	sh	a5,16(a1)
   129b8:	18d05063          	blez	a3,12b38 <__sflush_r+0x1c8>
   129bc:	04843703          	ld	a4,72(s0)
   129c0:	0c070a63          	beqz	a4,12a94 <__sflush_r+0x124>
   129c4:	03079793          	slli	a5,a5,0x30
   129c8:	0307d793          	srli	a5,a5,0x30
   129cc:	0009a483          	lw	s1,0(s3)
   129d0:	03379693          	slli	a3,a5,0x33
   129d4:	0009a023          	sw	zero,0(s3)
   129d8:	03043583          	ld	a1,48(s0)
   129dc:	1606c463          	bltz	a3,12b44 <__sflush_r+0x1d4>
   129e0:	00000613          	li	a2,0
   129e4:	00100693          	li	a3,1
   129e8:	00098513          	mv	a0,s3
   129ec:	000700e7          	jalr	a4
   129f0:	fff00793          	li	a5,-1
   129f4:	00050613          	mv	a2,a0
   129f8:	18f50663          	beq	a0,a5,12b84 <__sflush_r+0x214>
   129fc:	01045783          	lhu	a5,16(s0)
   12a00:	04843703          	ld	a4,72(s0)
   12a04:	03043583          	ld	a1,48(s0)
   12a08:	0047f793          	andi	a5,a5,4
   12a0c:	00078e63          	beqz	a5,12a28 <__sflush_r+0xb8>
   12a10:	00842683          	lw	a3,8(s0)
   12a14:	05843783          	ld	a5,88(s0)
   12a18:	40d60633          	sub	a2,a2,a3
   12a1c:	00078663          	beqz	a5,12a28 <__sflush_r+0xb8>
   12a20:	07042783          	lw	a5,112(s0)
   12a24:	40f60633          	sub	a2,a2,a5
   12a28:	00000693          	li	a3,0
   12a2c:	00098513          	mv	a0,s3
   12a30:	000700e7          	jalr	a4
   12a34:	fff00793          	li	a5,-1
   12a38:	10f51a63          	bne	a0,a5,12b4c <__sflush_r+0x1dc>
   12a3c:	0009a703          	lw	a4,0(s3)
   12a40:	01041783          	lh	a5,16(s0)
   12a44:	16070263          	beqz	a4,12ba8 <__sflush_r+0x238>
   12a48:	01d00693          	li	a3,29
   12a4c:	00d70663          	beq	a4,a3,12a58 <__sflush_r+0xe8>
   12a50:	01600693          	li	a3,22
   12a54:	16d71463          	bne	a4,a3,12bbc <__sflush_r+0x24c>
   12a58:	01843683          	ld	a3,24(s0)
   12a5c:	fffff737          	lui	a4,0xfffff
   12a60:	7ff70713          	addi	a4,a4,2047 # fffffffffffff7ff <__BSS_END__+0xfffffffffffe9cc7>
   12a64:	00e7f7b3          	and	a5,a5,a4
   12a68:	00f41823          	sh	a5,16(s0)
   12a6c:	00042423          	sw	zero,8(s0)
   12a70:	00d43023          	sd	a3,0(s0)
   12a74:	05843583          	ld	a1,88(s0)
   12a78:	0099a023          	sw	s1,0(s3)
   12a7c:	00058c63          	beqz	a1,12a94 <__sflush_r+0x124>
   12a80:	07440793          	addi	a5,s0,116
   12a84:	00f58663          	beq	a1,a5,12a90 <__sflush_r+0x120>
   12a88:	00098513          	mv	a0,s3
   12a8c:	300000ef          	jal	ra,12d8c <_free_r>
   12a90:	04043c23          	sd	zero,88(s0)
   12a94:	00000513          	li	a0,0
   12a98:	02813083          	ld	ra,40(sp)
   12a9c:	02013403          	ld	s0,32(sp)
   12aa0:	01813483          	ld	s1,24(sp)
   12aa4:	01013903          	ld	s2,16(sp)
   12aa8:	00813983          	ld	s3,8(sp)
   12aac:	03010113          	addi	sp,sp,48
   12ab0:	00008067          	ret
   12ab4:	0185b903          	ld	s2,24(a1)
   12ab8:	fc090ee3          	beqz	s2,12a94 <__sflush_r+0x124>
   12abc:	0005b483          	ld	s1,0(a1)
   12ac0:	00377713          	andi	a4,a4,3
   12ac4:	0125b023          	sd	s2,0(a1)
   12ac8:	412484bb          	subw	s1,s1,s2
   12acc:	00000793          	li	a5,0
   12ad0:	00071463          	bnez	a4,12ad8 <__sflush_r+0x168>
   12ad4:	0205a783          	lw	a5,32(a1)
   12ad8:	00f42623          	sw	a5,12(s0)
   12adc:	00904863          	bgtz	s1,12aec <__sflush_r+0x17c>
   12ae0:	fb5ff06f          	j	12a94 <__sflush_r+0x124>
   12ae4:	00a90933          	add	s2,s2,a0
   12ae8:	fa9056e3          	blez	s1,12a94 <__sflush_r+0x124>
   12aec:	04043783          	ld	a5,64(s0)
   12af0:	03043583          	ld	a1,48(s0)
   12af4:	00048693          	mv	a3,s1
   12af8:	00090613          	mv	a2,s2
   12afc:	00098513          	mv	a0,s3
   12b00:	000780e7          	jalr	a5
   12b04:	40a484bb          	subw	s1,s1,a0
   12b08:	fca04ee3          	bgtz	a0,12ae4 <__sflush_r+0x174>
   12b0c:	01045783          	lhu	a5,16(s0)
   12b10:	02813083          	ld	ra,40(sp)
   12b14:	01813483          	ld	s1,24(sp)
   12b18:	0407e793          	ori	a5,a5,64
   12b1c:	00f41823          	sh	a5,16(s0)
   12b20:	02013403          	ld	s0,32(sp)
   12b24:	01013903          	ld	s2,16(sp)
   12b28:	00813983          	ld	s3,8(sp)
   12b2c:	fff00513          	li	a0,-1
   12b30:	03010113          	addi	sp,sp,48
   12b34:	00008067          	ret
   12b38:	0705a703          	lw	a4,112(a1)
   12b3c:	e8e040e3          	bgtz	a4,129bc <__sflush_r+0x4c>
   12b40:	f55ff06f          	j	12a94 <__sflush_r+0x124>
   12b44:	09043603          	ld	a2,144(s0)
   12b48:	ec1ff06f          	j	12a08 <__sflush_r+0x98>
   12b4c:	01045783          	lhu	a5,16(s0)
   12b50:	fffff737          	lui	a4,0xfffff
   12b54:	7ff70713          	addi	a4,a4,2047 # fffffffffffff7ff <__BSS_END__+0xfffffffffffe9cc7>
   12b58:	00e7f7b3          	and	a5,a5,a4
   12b5c:	01843683          	ld	a3,24(s0)
   12b60:	0107979b          	slliw	a5,a5,0x10
   12b64:	4107d79b          	sraiw	a5,a5,0x10
   12b68:	00f41823          	sh	a5,16(s0)
   12b6c:	00042423          	sw	zero,8(s0)
   12b70:	00d43023          	sd	a3,0(s0)
   12b74:	03379713          	slli	a4,a5,0x33
   12b78:	ee075ee3          	bgez	a4,12a74 <__sflush_r+0x104>
   12b7c:	08a43823          	sd	a0,144(s0)
   12b80:	ef5ff06f          	j	12a74 <__sflush_r+0x104>
   12b84:	0009a783          	lw	a5,0(s3)
   12b88:	e6078ae3          	beqz	a5,129fc <__sflush_r+0x8c>
   12b8c:	01d00713          	li	a4,29
   12b90:	00e78663          	beq	a5,a4,12b9c <__sflush_r+0x22c>
   12b94:	01600713          	li	a4,22
   12b98:	f6e79ae3          	bne	a5,a4,12b0c <__sflush_r+0x19c>
   12b9c:	0099a023          	sw	s1,0(s3)
   12ba0:	00000513          	li	a0,0
   12ba4:	ef5ff06f          	j	12a98 <__sflush_r+0x128>
   12ba8:	fffff737          	lui	a4,0xfffff
   12bac:	7ff70713          	addi	a4,a4,2047 # fffffffffffff7ff <__BSS_END__+0xfffffffffffe9cc7>
   12bb0:	01843683          	ld	a3,24(s0)
   12bb4:	00e7f7b3          	and	a5,a5,a4
   12bb8:	fb1ff06f          	j	12b68 <__sflush_r+0x1f8>
   12bbc:	0407e793          	ori	a5,a5,64
   12bc0:	00f41823          	sh	a5,16(s0)
   12bc4:	fff00513          	li	a0,-1
   12bc8:	ed1ff06f          	j	12a98 <__sflush_r+0x128>

0000000000012bcc <_fflush_r>:
   12bcc:	fe010113          	addi	sp,sp,-32
   12bd0:	00813823          	sd	s0,16(sp)
   12bd4:	00113c23          	sd	ra,24(sp)
   12bd8:	00050413          	mv	s0,a0
   12bdc:	00050663          	beqz	a0,12be8 <_fflush_r+0x1c>
   12be0:	05052783          	lw	a5,80(a0)
   12be4:	02078063          	beqz	a5,12c04 <_fflush_r+0x38>
   12be8:	01059783          	lh	a5,16(a1)
   12bec:	02079663          	bnez	a5,12c18 <_fflush_r+0x4c>
   12bf0:	01813083          	ld	ra,24(sp)
   12bf4:	01013403          	ld	s0,16(sp)
   12bf8:	00000513          	li	a0,0
   12bfc:	02010113          	addi	sp,sp,32
   12c00:	00008067          	ret
   12c04:	00b13423          	sd	a1,8(sp)
   12c08:	88cfe0ef          	jal	ra,10c94 <__sinit>
   12c0c:	00813583          	ld	a1,8(sp)
   12c10:	01059783          	lh	a5,16(a1)
   12c14:	fc078ee3          	beqz	a5,12bf0 <_fflush_r+0x24>
   12c18:	00040513          	mv	a0,s0
   12c1c:	01013403          	ld	s0,16(sp)
   12c20:	01813083          	ld	ra,24(sp)
   12c24:	02010113          	addi	sp,sp,32
   12c28:	d49ff06f          	j	12970 <__sflush_r>

0000000000012c2c <fflush>:
   12c2c:	00050593          	mv	a1,a0
   12c30:	00050863          	beqz	a0,12c40 <fflush+0x14>
   12c34:	76018793          	addi	a5,gp,1888 # 15a98 <_impure_ptr>
   12c38:	0007b503          	ld	a0,0(a5)
   12c3c:	f91ff06f          	j	12bcc <_fflush_r>
   12c40:	75018793          	addi	a5,gp,1872 # 15a88 <_global_impure_ptr>
   12c44:	0007b503          	ld	a0,0(a5)
   12c48:	00000597          	auipc	a1,0x0
   12c4c:	f8458593          	addi	a1,a1,-124 # 12bcc <_fflush_r>
   12c50:	e28fe06f          	j	11278 <_fwalk_reent>

0000000000012c54 <_malloc_trim_r>:
   12c54:	fd010113          	addi	sp,sp,-48
   12c58:	02813023          	sd	s0,32(sp)
   12c5c:	00913c23          	sd	s1,24(sp)
   12c60:	01213823          	sd	s2,16(sp)
   12c64:	01313423          	sd	s3,8(sp)
   12c68:	00058413          	mv	s0,a1
   12c6c:	02113423          	sd	ra,40(sp)
   12c70:	00002997          	auipc	s3,0x2
   12c74:	5f098993          	addi	s3,s3,1520 # 15260 <__malloc_av_>
   12c78:	00050913          	mv	s2,a0
   12c7c:	a64ff0ef          	jal	ra,11ee0 <__malloc_lock>
   12c80:	0109b683          	ld	a3,16(s3)
   12c84:	00001737          	lui	a4,0x1
   12c88:	fdf70793          	addi	a5,a4,-33 # fdf <main-0xf0d1>
   12c8c:	0086b483          	ld	s1,8(a3)
   12c90:	40878433          	sub	s0,a5,s0
   12c94:	ffc4f493          	andi	s1,s1,-4
   12c98:	00940433          	add	s0,s0,s1
   12c9c:	00c45413          	srli	s0,s0,0xc
   12ca0:	fff40413          	addi	s0,s0,-1
   12ca4:	00c41413          	slli	s0,s0,0xc
   12ca8:	00e44e63          	blt	s0,a4,12cc4 <_malloc_trim_r+0x70>
   12cac:	00000593          	li	a1,0
   12cb0:	00090513          	mv	a0,s2
   12cb4:	fb8ff0ef          	jal	ra,1246c <_sbrk_r>
   12cb8:	0109b783          	ld	a5,16(s3)
   12cbc:	009787b3          	add	a5,a5,s1
   12cc0:	02f50663          	beq	a0,a5,12cec <_malloc_trim_r+0x98>
   12cc4:	00090513          	mv	a0,s2
   12cc8:	a1cff0ef          	jal	ra,11ee4 <__malloc_unlock>
   12ccc:	02813083          	ld	ra,40(sp)
   12cd0:	02013403          	ld	s0,32(sp)
   12cd4:	01813483          	ld	s1,24(sp)
   12cd8:	01013903          	ld	s2,16(sp)
   12cdc:	00813983          	ld	s3,8(sp)
   12ce0:	00000513          	li	a0,0
   12ce4:	03010113          	addi	sp,sp,48
   12ce8:	00008067          	ret
   12cec:	408005b3          	neg	a1,s0
   12cf0:	00090513          	mv	a0,s2
   12cf4:	f78ff0ef          	jal	ra,1246c <_sbrk_r>
   12cf8:	fff00793          	li	a5,-1
   12cfc:	04f50a63          	beq	a0,a5,12d50 <_malloc_trim_r+0xfc>
   12d00:	00003797          	auipc	a5,0x3
   12d04:	e0878793          	addi	a5,a5,-504 # 15b08 <__malloc_current_mallinfo>
   12d08:	0007a783          	lw	a5,0(a5)
   12d0c:	0109b703          	ld	a4,16(s3)
   12d10:	408484b3          	sub	s1,s1,s0
   12d14:	0014e493          	ori	s1,s1,1
   12d18:	4087843b          	subw	s0,a5,s0
   12d1c:	00090513          	mv	a0,s2
   12d20:	00973423          	sd	s1,8(a4)
   12d24:	00003797          	auipc	a5,0x3
   12d28:	de87a223          	sw	s0,-540(a5) # 15b08 <__malloc_current_mallinfo>
   12d2c:	9b8ff0ef          	jal	ra,11ee4 <__malloc_unlock>
   12d30:	02813083          	ld	ra,40(sp)
   12d34:	02013403          	ld	s0,32(sp)
   12d38:	01813483          	ld	s1,24(sp)
   12d3c:	01013903          	ld	s2,16(sp)
   12d40:	00813983          	ld	s3,8(sp)
   12d44:	00100513          	li	a0,1
   12d48:	03010113          	addi	sp,sp,48
   12d4c:	00008067          	ret
   12d50:	00000593          	li	a1,0
   12d54:	00090513          	mv	a0,s2
   12d58:	f14ff0ef          	jal	ra,1246c <_sbrk_r>
   12d5c:	0109b703          	ld	a4,16(s3)
   12d60:	01f00693          	li	a3,31
   12d64:	40e507b3          	sub	a5,a0,a4
   12d68:	f4f6dee3          	bge	a3,a5,12cc4 <_malloc_trim_r+0x70>
   12d6c:	76818693          	addi	a3,gp,1896 # 15aa0 <__malloc_sbrk_base>
   12d70:	0006b683          	ld	a3,0(a3)
   12d74:	0017e793          	ori	a5,a5,1
   12d78:	00f73423          	sd	a5,8(a4)
   12d7c:	40d50533          	sub	a0,a0,a3
   12d80:	00003797          	auipc	a5,0x3
   12d84:	d8a7a423          	sw	a0,-632(a5) # 15b08 <__malloc_current_mallinfo>
   12d88:	f3dff06f          	j	12cc4 <_malloc_trim_r+0x70>

0000000000012d8c <_free_r>:
   12d8c:	14058263          	beqz	a1,12ed0 <_free_r+0x144>
   12d90:	fe010113          	addi	sp,sp,-32
   12d94:	00813823          	sd	s0,16(sp)
   12d98:	00913423          	sd	s1,8(sp)
   12d9c:	00058413          	mv	s0,a1
   12da0:	00050493          	mv	s1,a0
   12da4:	00113c23          	sd	ra,24(sp)
   12da8:	938ff0ef          	jal	ra,11ee0 <__malloc_lock>
   12dac:	ff843583          	ld	a1,-8(s0)
   12db0:	ff040713          	addi	a4,s0,-16
   12db4:	00002517          	auipc	a0,0x2
   12db8:	4ac50513          	addi	a0,a0,1196 # 15260 <__malloc_av_>
   12dbc:	ffe5f793          	andi	a5,a1,-2
   12dc0:	00f70633          	add	a2,a4,a5
   12dc4:	00863683          	ld	a3,8(a2)
   12dc8:	01053803          	ld	a6,16(a0)
   12dcc:	ffc6f693          	andi	a3,a3,-4
   12dd0:	1ac80c63          	beq	a6,a2,12f88 <_free_r+0x1fc>
   12dd4:	00d63423          	sd	a3,8(a2)
   12dd8:	0015f593          	andi	a1,a1,1
   12ddc:	00d60833          	add	a6,a2,a3
   12de0:	0a059863          	bnez	a1,12e90 <_free_r+0x104>
   12de4:	ff043303          	ld	t1,-16(s0)
   12de8:	00883583          	ld	a1,8(a6)
   12dec:	00002897          	auipc	a7,0x2
   12df0:	48488893          	addi	a7,a7,1156 # 15270 <__malloc_av_+0x10>
   12df4:	40670733          	sub	a4,a4,t1
   12df8:	01073803          	ld	a6,16(a4)
   12dfc:	006787b3          	add	a5,a5,t1
   12e00:	0015f593          	andi	a1,a1,1
   12e04:	15180c63          	beq	a6,a7,12f5c <_free_r+0x1d0>
   12e08:	01873303          	ld	t1,24(a4)
   12e0c:	00683c23          	sd	t1,24(a6)
   12e10:	01033823          	sd	a6,16(t1) # 101a4 <state_machine+0x4>
   12e14:	1e058c63          	beqz	a1,1300c <_free_r+0x280>
   12e18:	0017e693          	ori	a3,a5,1
   12e1c:	00d73423          	sd	a3,8(a4)
   12e20:	00f63023          	sd	a5,0(a2)
   12e24:	1ff00693          	li	a3,511
   12e28:	0cf6e063          	bltu	a3,a5,12ee8 <_free_r+0x15c>
   12e2c:	0037d793          	srli	a5,a5,0x3
   12e30:	0007879b          	sext.w	a5,a5
   12e34:	0017869b          	addiw	a3,a5,1
   12e38:	0016969b          	slliw	a3,a3,0x1
   12e3c:	00369693          	slli	a3,a3,0x3
   12e40:	00853583          	ld	a1,8(a0)
   12e44:	00d50533          	add	a0,a0,a3
   12e48:	00053603          	ld	a2,0(a0)
   12e4c:	00100693          	li	a3,1
   12e50:	4027d79b          	sraiw	a5,a5,0x2
   12e54:	00f697b3          	sll	a5,a3,a5
   12e58:	00b7e7b3          	or	a5,a5,a1
   12e5c:	ff050693          	addi	a3,a0,-16
   12e60:	00d73c23          	sd	a3,24(a4)
   12e64:	00c73823          	sd	a2,16(a4)
   12e68:	00002697          	auipc	a3,0x2
   12e6c:	40f6b023          	sd	a5,1024(a3) # 15268 <__malloc_av_+0x8>
   12e70:	00e53023          	sd	a4,0(a0)
   12e74:	00e63c23          	sd	a4,24(a2)
   12e78:	01013403          	ld	s0,16(sp)
   12e7c:	01813083          	ld	ra,24(sp)
   12e80:	00048513          	mv	a0,s1
   12e84:	00813483          	ld	s1,8(sp)
   12e88:	02010113          	addi	sp,sp,32
   12e8c:	858ff06f          	j	11ee4 <__malloc_unlock>
   12e90:	00883583          	ld	a1,8(a6)
   12e94:	0015f593          	andi	a1,a1,1
   12e98:	02059e63          	bnez	a1,12ed4 <_free_r+0x148>
   12e9c:	00d787b3          	add	a5,a5,a3
   12ea0:	00002897          	auipc	a7,0x2
   12ea4:	3d088893          	addi	a7,a7,976 # 15270 <__malloc_av_+0x10>
   12ea8:	01063683          	ld	a3,16(a2)
   12eac:	0017e813          	ori	a6,a5,1
   12eb0:	00f705b3          	add	a1,a4,a5
   12eb4:	17168c63          	beq	a3,a7,1302c <_free_r+0x2a0>
   12eb8:	01863603          	ld	a2,24(a2)
   12ebc:	00c6bc23          	sd	a2,24(a3)
   12ec0:	00d63823          	sd	a3,16(a2)
   12ec4:	01073423          	sd	a6,8(a4)
   12ec8:	00f5b023          	sd	a5,0(a1)
   12ecc:	f59ff06f          	j	12e24 <_free_r+0x98>
   12ed0:	00008067          	ret
   12ed4:	0017e693          	ori	a3,a5,1
   12ed8:	fed43c23          	sd	a3,-8(s0)
   12edc:	00f63023          	sd	a5,0(a2)
   12ee0:	1ff00693          	li	a3,511
   12ee4:	f4f6f4e3          	bgeu	a3,a5,12e2c <_free_r+0xa0>
   12ee8:	0097d693          	srli	a3,a5,0x9
   12eec:	00400613          	li	a2,4
   12ef0:	0ed66863          	bltu	a2,a3,12fe0 <_free_r+0x254>
   12ef4:	0067d693          	srli	a3,a5,0x6
   12ef8:	0006869b          	sext.w	a3,a3
   12efc:	0396859b          	addiw	a1,a3,57
   12f00:	0015959b          	slliw	a1,a1,0x1
   12f04:	0386861b          	addiw	a2,a3,56
   12f08:	00359593          	slli	a1,a1,0x3
   12f0c:	00b505b3          	add	a1,a0,a1
   12f10:	0005b683          	ld	a3,0(a1)
   12f14:	ff058593          	addi	a1,a1,-16
   12f18:	12d58c63          	beq	a1,a3,13050 <_free_r+0x2c4>
   12f1c:	0086b603          	ld	a2,8(a3)
   12f20:	ffc67613          	andi	a2,a2,-4
   12f24:	00c7f663          	bgeu	a5,a2,12f30 <_free_r+0x1a4>
   12f28:	0106b683          	ld	a3,16(a3)
   12f2c:	fed598e3          	bne	a1,a3,12f1c <_free_r+0x190>
   12f30:	0186b583          	ld	a1,24(a3)
   12f34:	00b73c23          	sd	a1,24(a4)
   12f38:	00d73823          	sd	a3,16(a4)
   12f3c:	01013403          	ld	s0,16(sp)
   12f40:	00e5b823          	sd	a4,16(a1)
   12f44:	01813083          	ld	ra,24(sp)
   12f48:	00048513          	mv	a0,s1
   12f4c:	00813483          	ld	s1,8(sp)
   12f50:	00e6bc23          	sd	a4,24(a3)
   12f54:	02010113          	addi	sp,sp,32
   12f58:	f8dfe06f          	j	11ee4 <__malloc_unlock>
   12f5c:	16059463          	bnez	a1,130c4 <_free_r+0x338>
   12f60:	01063583          	ld	a1,16(a2)
   12f64:	01863603          	ld	a2,24(a2)
   12f68:	00f687b3          	add	a5,a3,a5
   12f6c:	0017e693          	ori	a3,a5,1
   12f70:	00c5bc23          	sd	a2,24(a1)
   12f74:	00b63823          	sd	a1,16(a2)
   12f78:	00d73423          	sd	a3,8(a4)
   12f7c:	00f70733          	add	a4,a4,a5
   12f80:	00f73023          	sd	a5,0(a4)
   12f84:	ef5ff06f          	j	12e78 <_free_r+0xec>
   12f88:	0015f593          	andi	a1,a1,1
   12f8c:	00d787b3          	add	a5,a5,a3
   12f90:	02059063          	bnez	a1,12fb0 <_free_r+0x224>
   12f94:	ff043583          	ld	a1,-16(s0)
   12f98:	40b70733          	sub	a4,a4,a1
   12f9c:	01873683          	ld	a3,24(a4)
   12fa0:	01073603          	ld	a2,16(a4)
   12fa4:	00b787b3          	add	a5,a5,a1
   12fa8:	00d63c23          	sd	a3,24(a2)
   12fac:	00c6b823          	sd	a2,16(a3)
   12fb0:	77018693          	addi	a3,gp,1904 # 15aa8 <__malloc_trim_threshold>
   12fb4:	0017e613          	ori	a2,a5,1
   12fb8:	0006b683          	ld	a3,0(a3)
   12fbc:	00c73423          	sd	a2,8(a4)
   12fc0:	00002617          	auipc	a2,0x2
   12fc4:	2ae63823          	sd	a4,688(a2) # 15270 <__malloc_av_+0x10>
   12fc8:	ead7e8e3          	bltu	a5,a3,12e78 <_free_r+0xec>
   12fcc:	78818793          	addi	a5,gp,1928 # 15ac0 <__malloc_top_pad>
   12fd0:	0007b583          	ld	a1,0(a5)
   12fd4:	00048513          	mv	a0,s1
   12fd8:	c7dff0ef          	jal	ra,12c54 <_malloc_trim_r>
   12fdc:	e9dff06f          	j	12e78 <_free_r+0xec>
   12fe0:	01400613          	li	a2,20
   12fe4:	02d67863          	bgeu	a2,a3,13014 <_free_r+0x288>
   12fe8:	05400613          	li	a2,84
   12fec:	08d66263          	bltu	a2,a3,13070 <_free_r+0x2e4>
   12ff0:	00c7d693          	srli	a3,a5,0xc
   12ff4:	0006869b          	sext.w	a3,a3
   12ff8:	06f6859b          	addiw	a1,a3,111
   12ffc:	0015959b          	slliw	a1,a1,0x1
   13000:	06e6861b          	addiw	a2,a3,110
   13004:	00359593          	slli	a1,a1,0x3
   13008:	f05ff06f          	j	12f0c <_free_r+0x180>
   1300c:	00d787b3          	add	a5,a5,a3
   13010:	e99ff06f          	j	12ea8 <_free_r+0x11c>
   13014:	0006869b          	sext.w	a3,a3
   13018:	05c6859b          	addiw	a1,a3,92
   1301c:	0015959b          	slliw	a1,a1,0x1
   13020:	05b6861b          	addiw	a2,a3,91
   13024:	00359593          	slli	a1,a1,0x3
   13028:	ee5ff06f          	j	12f0c <_free_r+0x180>
   1302c:	00002697          	auipc	a3,0x2
   13030:	24e6be23          	sd	a4,604(a3) # 15288 <__malloc_av_+0x28>
   13034:	00002697          	auipc	a3,0x2
   13038:	24e6b623          	sd	a4,588(a3) # 15280 <__malloc_av_+0x20>
   1303c:	01173c23          	sd	a7,24(a4)
   13040:	01173823          	sd	a7,16(a4)
   13044:	01073423          	sd	a6,8(a4)
   13048:	00f5b023          	sd	a5,0(a1)
   1304c:	e2dff06f          	j	12e78 <_free_r+0xec>
   13050:	00853503          	ld	a0,8(a0)
   13054:	00100793          	li	a5,1
   13058:	4026561b          	sraiw	a2,a2,0x2
   1305c:	00c79633          	sll	a2,a5,a2
   13060:	00a66633          	or	a2,a2,a0
   13064:	00002797          	auipc	a5,0x2
   13068:	20c7b223          	sd	a2,516(a5) # 15268 <__malloc_av_+0x8>
   1306c:	ec9ff06f          	j	12f34 <_free_r+0x1a8>
   13070:	15400613          	li	a2,340
   13074:	02d66063          	bltu	a2,a3,13094 <_free_r+0x308>
   13078:	00f7d693          	srli	a3,a5,0xf
   1307c:	0006869b          	sext.w	a3,a3
   13080:	0786859b          	addiw	a1,a3,120
   13084:	0015959b          	slliw	a1,a1,0x1
   13088:	0776861b          	addiw	a2,a3,119
   1308c:	00359593          	slli	a1,a1,0x3
   13090:	e7dff06f          	j	12f0c <_free_r+0x180>
   13094:	55400613          	li	a2,1364
   13098:	02d66063          	bltu	a2,a3,130b8 <_free_r+0x32c>
   1309c:	0127d693          	srli	a3,a5,0x12
   130a0:	0006869b          	sext.w	a3,a3
   130a4:	07d6859b          	addiw	a1,a3,125
   130a8:	0015959b          	slliw	a1,a1,0x1
   130ac:	07c6861b          	addiw	a2,a3,124
   130b0:	00359593          	slli	a1,a1,0x3
   130b4:	e59ff06f          	j	12f0c <_free_r+0x180>
   130b8:	7f000593          	li	a1,2032
   130bc:	07e00613          	li	a2,126
   130c0:	e4dff06f          	j	12f0c <_free_r+0x180>
   130c4:	0017e693          	ori	a3,a5,1
   130c8:	00d73423          	sd	a3,8(a4)
   130cc:	00f63023          	sd	a5,0(a2)
   130d0:	da9ff06f          	j	12e78 <_free_r+0xec>

00000000000130d4 <_lseek_r>:
   130d4:	00058793          	mv	a5,a1
   130d8:	ff010113          	addi	sp,sp,-16
   130dc:	00813023          	sd	s0,0(sp)
   130e0:	00060593          	mv	a1,a2
   130e4:	00050413          	mv	s0,a0
   130e8:	00068613          	mv	a2,a3
   130ec:	00078513          	mv	a0,a5
   130f0:	00113423          	sd	ra,8(sp)
   130f4:	00003797          	auipc	a5,0x3
   130f8:	a207ae23          	sw	zero,-1476(a5) # 15b30 <errno>
   130fc:	5f8000ef          	jal	ra,136f4 <_lseek>
   13100:	fff00793          	li	a5,-1
   13104:	00f50a63          	beq	a0,a5,13118 <_lseek_r+0x44>
   13108:	00813083          	ld	ra,8(sp)
   1310c:	00013403          	ld	s0,0(sp)
   13110:	01010113          	addi	sp,sp,16
   13114:	00008067          	ret
   13118:	00003797          	auipc	a5,0x3
   1311c:	a1878793          	addi	a5,a5,-1512 # 15b30 <errno>
   13120:	0007a783          	lw	a5,0(a5)
   13124:	fe0782e3          	beqz	a5,13108 <_lseek_r+0x34>
   13128:	00f42023          	sw	a5,0(s0)
   1312c:	00813083          	ld	ra,8(sp)
   13130:	00013403          	ld	s0,0(sp)
   13134:	01010113          	addi	sp,sp,16
   13138:	00008067          	ret

000000000001313c <__swhatbuf_r>:
   1313c:	f7010113          	addi	sp,sp,-144
   13140:	08813023          	sd	s0,128(sp)
   13144:	00058413          	mv	s0,a1
   13148:	01259583          	lh	a1,18(a1)
   1314c:	06913c23          	sd	s1,120(sp)
   13150:	07213823          	sd	s2,112(sp)
   13154:	08113423          	sd	ra,136(sp)
   13158:	00060493          	mv	s1,a2
   1315c:	00068913          	mv	s2,a3
   13160:	0405ca63          	bltz	a1,131b4 <__swhatbuf_r+0x78>
   13164:	00810613          	addi	a2,sp,8
   13168:	37c000ef          	jal	ra,134e4 <_fstat_r>
   1316c:	04054463          	bltz	a0,131b4 <__swhatbuf_r+0x78>
   13170:	00c12783          	lw	a5,12(sp)
   13174:	0000f737          	lui	a4,0xf
   13178:	08813083          	ld	ra,136(sp)
   1317c:	00e7f7b3          	and	a5,a5,a4
   13180:	00002737          	lui	a4,0x2
   13184:	40e787b3          	sub	a5,a5,a4
   13188:	0017b793          	seqz	a5,a5
   1318c:	08013403          	ld	s0,128(sp)
   13190:	00f92023          	sw	a5,0(s2)
   13194:	40000793          	li	a5,1024
   13198:	00f4b023          	sd	a5,0(s1)
   1319c:	00001537          	lui	a0,0x1
   131a0:	07813483          	ld	s1,120(sp)
   131a4:	07013903          	ld	s2,112(sp)
   131a8:	80050513          	addi	a0,a0,-2048 # 800 <main-0xf8b0>
   131ac:	09010113          	addi	sp,sp,144
   131b0:	00008067          	ret
   131b4:	01045783          	lhu	a5,16(s0)
   131b8:	00092023          	sw	zero,0(s2)
   131bc:	0807f793          	andi	a5,a5,128
   131c0:	02078463          	beqz	a5,131e8 <__swhatbuf_r+0xac>
   131c4:	08813083          	ld	ra,136(sp)
   131c8:	08013403          	ld	s0,128(sp)
   131cc:	04000793          	li	a5,64
   131d0:	00f4b023          	sd	a5,0(s1)
   131d4:	07013903          	ld	s2,112(sp)
   131d8:	07813483          	ld	s1,120(sp)
   131dc:	00000513          	li	a0,0
   131e0:	09010113          	addi	sp,sp,144
   131e4:	00008067          	ret
   131e8:	08813083          	ld	ra,136(sp)
   131ec:	08013403          	ld	s0,128(sp)
   131f0:	40000793          	li	a5,1024
   131f4:	00f4b023          	sd	a5,0(s1)
   131f8:	07013903          	ld	s2,112(sp)
   131fc:	07813483          	ld	s1,120(sp)
   13200:	00000513          	li	a0,0
   13204:	09010113          	addi	sp,sp,144
   13208:	00008067          	ret

000000000001320c <__smakebuf_r>:
   1320c:	0105d703          	lhu	a4,16(a1)
   13210:	fd010113          	addi	sp,sp,-48
   13214:	02813023          	sd	s0,32(sp)
   13218:	02113423          	sd	ra,40(sp)
   1321c:	00913c23          	sd	s1,24(sp)
   13220:	01213823          	sd	s2,16(sp)
   13224:	00277713          	andi	a4,a4,2
   13228:	00058413          	mv	s0,a1
   1322c:	02070863          	beqz	a4,1325c <__smakebuf_r+0x50>
   13230:	07758713          	addi	a4,a1,119
   13234:	00e5b023          	sd	a4,0(a1)
   13238:	00e5bc23          	sd	a4,24(a1)
   1323c:	00100713          	li	a4,1
   13240:	02e5a023          	sw	a4,32(a1)
   13244:	02813083          	ld	ra,40(sp)
   13248:	02013403          	ld	s0,32(sp)
   1324c:	01813483          	ld	s1,24(sp)
   13250:	01013903          	ld	s2,16(sp)
   13254:	03010113          	addi	sp,sp,48
   13258:	00008067          	ret
   1325c:	00410693          	addi	a3,sp,4
   13260:	00810613          	addi	a2,sp,8
   13264:	00050493          	mv	s1,a0
   13268:	ed5ff0ef          	jal	ra,1313c <__swhatbuf_r>
   1326c:	00813583          	ld	a1,8(sp)
   13270:	00050913          	mv	s2,a0
   13274:	00048513          	mv	a0,s1
   13278:	8e4fe0ef          	jal	ra,1135c <_malloc_r>
   1327c:	01041783          	lh	a5,16(s0)
   13280:	04050863          	beqz	a0,132d0 <__smakebuf_r+0xc4>
   13284:	ffffd697          	auipc	a3,0xffffd
   13288:	6f868693          	addi	a3,a3,1784 # 1097c <_cleanup_r>
   1328c:	04d4bc23          	sd	a3,88(s1)
   13290:	00813683          	ld	a3,8(sp)
   13294:	00412703          	lw	a4,4(sp)
   13298:	0807e793          	ori	a5,a5,128
   1329c:	00f41823          	sh	a5,16(s0)
   132a0:	00a43023          	sd	a0,0(s0)
   132a4:	00a43c23          	sd	a0,24(s0)
   132a8:	02d42023          	sw	a3,32(s0)
   132ac:	04071863          	bnez	a4,132fc <__smakebuf_r+0xf0>
   132b0:	0127e7b3          	or	a5,a5,s2
   132b4:	00f41823          	sh	a5,16(s0)
   132b8:	02813083          	ld	ra,40(sp)
   132bc:	02013403          	ld	s0,32(sp)
   132c0:	01813483          	ld	s1,24(sp)
   132c4:	01013903          	ld	s2,16(sp)
   132c8:	03010113          	addi	sp,sp,48
   132cc:	00008067          	ret
   132d0:	2007f713          	andi	a4,a5,512
   132d4:	f60718e3          	bnez	a4,13244 <__smakebuf_r+0x38>
   132d8:	ffc7f793          	andi	a5,a5,-4
   132dc:	0027e793          	ori	a5,a5,2
   132e0:	07740713          	addi	a4,s0,119
   132e4:	00f41823          	sh	a5,16(s0)
   132e8:	00100793          	li	a5,1
   132ec:	00e43023          	sd	a4,0(s0)
   132f0:	00e43c23          	sd	a4,24(s0)
   132f4:	02f42023          	sw	a5,32(s0)
   132f8:	f4dff06f          	j	13244 <__smakebuf_r+0x38>
   132fc:	01241583          	lh	a1,18(s0)
   13300:	00048513          	mv	a0,s1
   13304:	244000ef          	jal	ra,13548 <_isatty_r>
   13308:	00051663          	bnez	a0,13314 <__smakebuf_r+0x108>
   1330c:	01041783          	lh	a5,16(s0)
   13310:	fa1ff06f          	j	132b0 <__smakebuf_r+0xa4>
   13314:	01045783          	lhu	a5,16(s0)
   13318:	ffc7f793          	andi	a5,a5,-4
   1331c:	0017e793          	ori	a5,a5,1
   13320:	0107979b          	slliw	a5,a5,0x10
   13324:	4107d79b          	sraiw	a5,a5,0x10
   13328:	f89ff06f          	j	132b0 <__smakebuf_r+0xa4>

000000000001332c <_read_r>:
   1332c:	00058793          	mv	a5,a1
   13330:	ff010113          	addi	sp,sp,-16
   13334:	00813023          	sd	s0,0(sp)
   13338:	00060593          	mv	a1,a2
   1333c:	00050413          	mv	s0,a0
   13340:	00068613          	mv	a2,a3
   13344:	00078513          	mv	a0,a5
   13348:	00113423          	sd	ra,8(sp)
   1334c:	00002797          	auipc	a5,0x2
   13350:	7e07a223          	sw	zero,2020(a5) # 15b30 <errno>
   13354:	3f0000ef          	jal	ra,13744 <_read>
   13358:	fff00793          	li	a5,-1
   1335c:	00f50a63          	beq	a0,a5,13370 <_read_r+0x44>
   13360:	00813083          	ld	ra,8(sp)
   13364:	00013403          	ld	s0,0(sp)
   13368:	01010113          	addi	sp,sp,16
   1336c:	00008067          	ret
   13370:	00002797          	auipc	a5,0x2
   13374:	7c078793          	addi	a5,a5,1984 # 15b30 <errno>
   13378:	0007a783          	lw	a5,0(a5)
   1337c:	fe0782e3          	beqz	a5,13360 <_read_r+0x34>
   13380:	00f42023          	sw	a5,0(s0)
   13384:	00813083          	ld	ra,8(sp)
   13388:	00013403          	ld	s0,0(sp)
   1338c:	01010113          	addi	sp,sp,16
   13390:	00008067          	ret

0000000000013394 <cleanup_glue>:
   13394:	fe010113          	addi	sp,sp,-32
   13398:	00813823          	sd	s0,16(sp)
   1339c:	00058413          	mv	s0,a1
   133a0:	0005b583          	ld	a1,0(a1)
   133a4:	00913423          	sd	s1,8(sp)
   133a8:	00113c23          	sd	ra,24(sp)
   133ac:	00050493          	mv	s1,a0
   133b0:	00058463          	beqz	a1,133b8 <cleanup_glue+0x24>
   133b4:	fe1ff0ef          	jal	ra,13394 <cleanup_glue>
   133b8:	00040593          	mv	a1,s0
   133bc:	01013403          	ld	s0,16(sp)
   133c0:	01813083          	ld	ra,24(sp)
   133c4:	00048513          	mv	a0,s1
   133c8:	00813483          	ld	s1,8(sp)
   133cc:	02010113          	addi	sp,sp,32
   133d0:	9bdff06f          	j	12d8c <_free_r>

00000000000133d4 <_reclaim_reent>:
   133d4:	76018793          	addi	a5,gp,1888 # 15a98 <_impure_ptr>
   133d8:	0007b783          	ld	a5,0(a5)
   133dc:	10a78263          	beq	a5,a0,134e0 <_reclaim_reent+0x10c>
   133e0:	07853703          	ld	a4,120(a0)
   133e4:	fd010113          	addi	sp,sp,-48
   133e8:	00913c23          	sd	s1,24(sp)
   133ec:	02113423          	sd	ra,40(sp)
   133f0:	02813023          	sd	s0,32(sp)
   133f4:	01213823          	sd	s2,16(sp)
   133f8:	01313423          	sd	s3,8(sp)
   133fc:	00050493          	mv	s1,a0
   13400:	04070263          	beqz	a4,13444 <_reclaim_reent+0x70>
   13404:	00000913          	li	s2,0
   13408:	20000993          	li	s3,512
   1340c:	012707b3          	add	a5,a4,s2
   13410:	0007b583          	ld	a1,0(a5)
   13414:	00058e63          	beqz	a1,13430 <_reclaim_reent+0x5c>
   13418:	0005b403          	ld	s0,0(a1)
   1341c:	00048513          	mv	a0,s1
   13420:	96dff0ef          	jal	ra,12d8c <_free_r>
   13424:	00040593          	mv	a1,s0
   13428:	fe0418e3          	bnez	s0,13418 <_reclaim_reent+0x44>
   1342c:	0784b703          	ld	a4,120(s1)
   13430:	00890913          	addi	s2,s2,8
   13434:	fd391ce3          	bne	s2,s3,1340c <_reclaim_reent+0x38>
   13438:	00070593          	mv	a1,a4
   1343c:	00048513          	mv	a0,s1
   13440:	94dff0ef          	jal	ra,12d8c <_free_r>
   13444:	0604b583          	ld	a1,96(s1)
   13448:	00058663          	beqz	a1,13454 <_reclaim_reent+0x80>
   1344c:	00048513          	mv	a0,s1
   13450:	93dff0ef          	jal	ra,12d8c <_free_r>
   13454:	1f84b583          	ld	a1,504(s1)
   13458:	02058063          	beqz	a1,13478 <_reclaim_reent+0xa4>
   1345c:	20048913          	addi	s2,s1,512
   13460:	01258c63          	beq	a1,s2,13478 <_reclaim_reent+0xa4>
   13464:	0005b403          	ld	s0,0(a1)
   13468:	00048513          	mv	a0,s1
   1346c:	921ff0ef          	jal	ra,12d8c <_free_r>
   13470:	00040593          	mv	a1,s0
   13474:	fe8918e3          	bne	s2,s0,13464 <_reclaim_reent+0x90>
   13478:	0884b583          	ld	a1,136(s1)
   1347c:	00058663          	beqz	a1,13488 <_reclaim_reent+0xb4>
   13480:	00048513          	mv	a0,s1
   13484:	909ff0ef          	jal	ra,12d8c <_free_r>
   13488:	0504a783          	lw	a5,80(s1)
   1348c:	02078c63          	beqz	a5,134c4 <_reclaim_reent+0xf0>
   13490:	0584b783          	ld	a5,88(s1)
   13494:	00048513          	mv	a0,s1
   13498:	000780e7          	jalr	a5
   1349c:	5204b583          	ld	a1,1312(s1)
   134a0:	02058263          	beqz	a1,134c4 <_reclaim_reent+0xf0>
   134a4:	02013403          	ld	s0,32(sp)
   134a8:	02813083          	ld	ra,40(sp)
   134ac:	01013903          	ld	s2,16(sp)
   134b0:	00813983          	ld	s3,8(sp)
   134b4:	00048513          	mv	a0,s1
   134b8:	01813483          	ld	s1,24(sp)
   134bc:	03010113          	addi	sp,sp,48
   134c0:	ed5ff06f          	j	13394 <cleanup_glue>
   134c4:	02813083          	ld	ra,40(sp)
   134c8:	02013403          	ld	s0,32(sp)
   134cc:	01813483          	ld	s1,24(sp)
   134d0:	01013903          	ld	s2,16(sp)
   134d4:	00813983          	ld	s3,8(sp)
   134d8:	03010113          	addi	sp,sp,48
   134dc:	00008067          	ret
   134e0:	00008067          	ret

00000000000134e4 <_fstat_r>:
   134e4:	00058793          	mv	a5,a1
   134e8:	ff010113          	addi	sp,sp,-16
   134ec:	00813023          	sd	s0,0(sp)
   134f0:	00060593          	mv	a1,a2
   134f4:	00050413          	mv	s0,a0
   134f8:	00078513          	mv	a0,a5
   134fc:	00113423          	sd	ra,8(sp)
   13500:	00002797          	auipc	a5,0x2
   13504:	6207a823          	sw	zero,1584(a5) # 15b30 <errno>
   13508:	138000ef          	jal	ra,13640 <_fstat>
   1350c:	fff00793          	li	a5,-1
   13510:	00f50a63          	beq	a0,a5,13524 <_fstat_r+0x40>
   13514:	00813083          	ld	ra,8(sp)
   13518:	00013403          	ld	s0,0(sp)
   1351c:	01010113          	addi	sp,sp,16
   13520:	00008067          	ret
   13524:	00002797          	auipc	a5,0x2
   13528:	60c78793          	addi	a5,a5,1548 # 15b30 <errno>
   1352c:	0007a783          	lw	a5,0(a5)
   13530:	fe0782e3          	beqz	a5,13514 <_fstat_r+0x30>
   13534:	00f42023          	sw	a5,0(s0)
   13538:	00813083          	ld	ra,8(sp)
   1353c:	00013403          	ld	s0,0(sp)
   13540:	01010113          	addi	sp,sp,16
   13544:	00008067          	ret

0000000000013548 <_isatty_r>:
   13548:	ff010113          	addi	sp,sp,-16
   1354c:	00813023          	sd	s0,0(sp)
   13550:	00050413          	mv	s0,a0
   13554:	00058513          	mv	a0,a1
   13558:	00002797          	auipc	a5,0x2
   1355c:	5c07ac23          	sw	zero,1496(a5) # 15b30 <errno>
   13560:	00113423          	sd	ra,8(sp)
   13564:	150000ef          	jal	ra,136b4 <_isatty>
   13568:	fff00793          	li	a5,-1
   1356c:	00f50a63          	beq	a0,a5,13580 <_isatty_r+0x38>
   13570:	00813083          	ld	ra,8(sp)
   13574:	00013403          	ld	s0,0(sp)
   13578:	01010113          	addi	sp,sp,16
   1357c:	00008067          	ret
   13580:	00002797          	auipc	a5,0x2
   13584:	5b078793          	addi	a5,a5,1456 # 15b30 <errno>
   13588:	0007a783          	lw	a5,0(a5)
   1358c:	fe0782e3          	beqz	a5,13570 <_isatty_r+0x28>
   13590:	00f42023          	sw	a5,0(s0)
   13594:	00813083          	ld	ra,8(sp)
   13598:	00013403          	ld	s0,0(sp)
   1359c:	01010113          	addi	sp,sp,16
   135a0:	00008067          	ret

00000000000135a4 <_close>:
   135a4:	00000593          	li	a1,0
   135a8:	00000613          	li	a2,0
   135ac:	00000693          	li	a3,0
   135b0:	00000713          	li	a4,0
   135b4:	00000793          	li	a5,0
   135b8:	03900893          	li	a7,57
   135bc:	00000073          	ecall
   135c0:	00054663          	bltz	a0,135cc <_close+0x28>
   135c4:	0005051b          	sext.w	a0,a0
   135c8:	00008067          	ret
   135cc:	ff010113          	addi	sp,sp,-16
   135d0:	00813023          	sd	s0,0(sp)
   135d4:	00113423          	sd	ra,8(sp)
   135d8:	00050413          	mv	s0,a0
   135dc:	314000ef          	jal	ra,138f0 <__errno>
   135e0:	408007bb          	negw	a5,s0
   135e4:	00813083          	ld	ra,8(sp)
   135e8:	00013403          	ld	s0,0(sp)
   135ec:	00f52023          	sw	a5,0(a0)
   135f0:	fff00513          	li	a0,-1
   135f4:	01010113          	addi	sp,sp,16
   135f8:	00008067          	ret

00000000000135fc <_exit>:
   135fc:	00000593          	li	a1,0
   13600:	00000613          	li	a2,0
   13604:	00000693          	li	a3,0
   13608:	00000713          	li	a4,0
   1360c:	00000793          	li	a5,0
   13610:	05d00893          	li	a7,93
   13614:	00000073          	ecall
   13618:	00054463          	bltz	a0,13620 <_exit+0x24>
   1361c:	0000006f          	j	1361c <_exit+0x20>
   13620:	ff010113          	addi	sp,sp,-16
   13624:	00813023          	sd	s0,0(sp)
   13628:	00050413          	mv	s0,a0
   1362c:	00113423          	sd	ra,8(sp)
   13630:	4080043b          	negw	s0,s0
   13634:	2bc000ef          	jal	ra,138f0 <__errno>
   13638:	00852023          	sw	s0,0(a0)
   1363c:	0000006f          	j	1363c <_exit+0x40>

0000000000013640 <_fstat>:
   13640:	f6010113          	addi	sp,sp,-160
   13644:	08913423          	sd	s1,136(sp)
   13648:	08113c23          	sd	ra,152(sp)
   1364c:	00058493          	mv	s1,a1
   13650:	08813823          	sd	s0,144(sp)
   13654:	00000613          	li	a2,0
   13658:	00010593          	mv	a1,sp
   1365c:	00000693          	li	a3,0
   13660:	00000713          	li	a4,0
   13664:	00000793          	li	a5,0
   13668:	05000893          	li	a7,80
   1366c:	00000073          	ecall
   13670:	00050413          	mv	s0,a0
   13674:	02054663          	bltz	a0,136a0 <_fstat+0x60>
   13678:	0005041b          	sext.w	s0,a0
   1367c:	00048513          	mv	a0,s1
   13680:	00010593          	mv	a1,sp
   13684:	200000ef          	jal	ra,13884 <_conv_stat>
   13688:	00040513          	mv	a0,s0
   1368c:	09813083          	ld	ra,152(sp)
   13690:	09013403          	ld	s0,144(sp)
   13694:	08813483          	ld	s1,136(sp)
   13698:	0a010113          	addi	sp,sp,160
   1369c:	00008067          	ret
   136a0:	4080043b          	negw	s0,s0
   136a4:	24c000ef          	jal	ra,138f0 <__errno>
   136a8:	00852023          	sw	s0,0(a0)
   136ac:	fff00413          	li	s0,-1
   136b0:	fcdff06f          	j	1367c <_fstat+0x3c>

00000000000136b4 <_isatty>:
   136b4:	f8010113          	addi	sp,sp,-128
   136b8:	00810593          	addi	a1,sp,8
   136bc:	06113c23          	sd	ra,120(sp)
   136c0:	f81ff0ef          	jal	ra,13640 <_fstat>
   136c4:	fff00793          	li	a5,-1
   136c8:	00f50e63          	beq	a0,a5,136e4 <_isatty+0x30>
   136cc:	00c12503          	lw	a0,12(sp)
   136d0:	07813083          	ld	ra,120(sp)
   136d4:	40d5551b          	sraiw	a0,a0,0xd
   136d8:	00157513          	andi	a0,a0,1
   136dc:	08010113          	addi	sp,sp,128
   136e0:	00008067          	ret
   136e4:	07813083          	ld	ra,120(sp)
   136e8:	00000513          	li	a0,0
   136ec:	08010113          	addi	sp,sp,128
   136f0:	00008067          	ret

00000000000136f4 <_lseek>:
   136f4:	ff010113          	addi	sp,sp,-16
   136f8:	00113423          	sd	ra,8(sp)
   136fc:	00813023          	sd	s0,0(sp)
   13700:	00000693          	li	a3,0
   13704:	00000713          	li	a4,0
   13708:	00000793          	li	a5,0
   1370c:	03e00893          	li	a7,62
   13710:	00000073          	ecall
   13714:	00050413          	mv	s0,a0
   13718:	00054c63          	bltz	a0,13730 <_lseek+0x3c>
   1371c:	00040513          	mv	a0,s0
   13720:	00813083          	ld	ra,8(sp)
   13724:	00013403          	ld	s0,0(sp)
   13728:	01010113          	addi	sp,sp,16
   1372c:	00008067          	ret
   13730:	4080043b          	negw	s0,s0
   13734:	1bc000ef          	jal	ra,138f0 <__errno>
   13738:	00852023          	sw	s0,0(a0)
   1373c:	fff00413          	li	s0,-1
   13740:	fddff06f          	j	1371c <_lseek+0x28>

0000000000013744 <_read>:
   13744:	ff010113          	addi	sp,sp,-16
   13748:	00113423          	sd	ra,8(sp)
   1374c:	00813023          	sd	s0,0(sp)
   13750:	00000693          	li	a3,0
   13754:	00000713          	li	a4,0
   13758:	00000793          	li	a5,0
   1375c:	03f00893          	li	a7,63
   13760:	00000073          	ecall
   13764:	00050413          	mv	s0,a0
   13768:	00054c63          	bltz	a0,13780 <_read+0x3c>
   1376c:	00040513          	mv	a0,s0
   13770:	00813083          	ld	ra,8(sp)
   13774:	00013403          	ld	s0,0(sp)
   13778:	01010113          	addi	sp,sp,16
   1377c:	00008067          	ret
   13780:	4080043b          	negw	s0,s0
   13784:	16c000ef          	jal	ra,138f0 <__errno>
   13788:	00852023          	sw	s0,0(a0)
   1378c:	fff00413          	li	s0,-1
   13790:	fddff06f          	j	1376c <_read+0x28>

0000000000013794 <_sbrk>:
   13794:	79018313          	addi	t1,gp,1936 # 15ac8 <heap_end.1898>
   13798:	00033783          	ld	a5,0(t1)
   1379c:	ff010113          	addi	sp,sp,-16
   137a0:	00113423          	sd	ra,8(sp)
   137a4:	00050813          	mv	a6,a0
   137a8:	02079863          	bnez	a5,137d8 <_sbrk+0x44>
   137ac:	00000513          	li	a0,0
   137b0:	00000593          	li	a1,0
   137b4:	00000613          	li	a2,0
   137b8:	00000693          	li	a3,0
   137bc:	00000713          	li	a4,0
   137c0:	0d600893          	li	a7,214
   137c4:	00000073          	ecall
   137c8:	fff00793          	li	a5,-1
   137cc:	04f50663          	beq	a0,a5,13818 <_sbrk+0x84>
   137d0:	00050793          	mv	a5,a0
   137d4:	78a1b823          	sd	a0,1936(gp) # 15ac8 <heap_end.1898>
   137d8:	00f80533          	add	a0,a6,a5
   137dc:	00000593          	li	a1,0
   137e0:	00000613          	li	a2,0
   137e4:	00000693          	li	a3,0
   137e8:	00000713          	li	a4,0
   137ec:	00000793          	li	a5,0
   137f0:	0d600893          	li	a7,214
   137f4:	00000073          	ecall
   137f8:	00033783          	ld	a5,0(t1)
   137fc:	00f80833          	add	a6,a6,a5
   13800:	01051c63          	bne	a0,a6,13818 <_sbrk+0x84>
   13804:	00813083          	ld	ra,8(sp)
   13808:	78a1b823          	sd	a0,1936(gp) # 15ac8 <heap_end.1898>
   1380c:	00078513          	mv	a0,a5
   13810:	01010113          	addi	sp,sp,16
   13814:	00008067          	ret
   13818:	0d8000ef          	jal	ra,138f0 <__errno>
   1381c:	00813083          	ld	ra,8(sp)
   13820:	00c00793          	li	a5,12
   13824:	00f52023          	sw	a5,0(a0)
   13828:	fff00513          	li	a0,-1
   1382c:	01010113          	addi	sp,sp,16
   13830:	00008067          	ret

0000000000013834 <_write>:
   13834:	ff010113          	addi	sp,sp,-16
   13838:	00113423          	sd	ra,8(sp)
   1383c:	00813023          	sd	s0,0(sp)
   13840:	00000693          	li	a3,0
   13844:	00000713          	li	a4,0
   13848:	00000793          	li	a5,0
   1384c:	04000893          	li	a7,64
   13850:	00000073          	ecall
   13854:	00050413          	mv	s0,a0
   13858:	00054c63          	bltz	a0,13870 <_write+0x3c>
   1385c:	00040513          	mv	a0,s0
   13860:	00813083          	ld	ra,8(sp)
   13864:	00013403          	ld	s0,0(sp)
   13868:	01010113          	addi	sp,sp,16
   1386c:	00008067          	ret
   13870:	4080043b          	negw	s0,s0
   13874:	07c000ef          	jal	ra,138f0 <__errno>
   13878:	00852023          	sw	s0,0(a0)
   1387c:	fff00413          	li	s0,-1
   13880:	fddff06f          	j	1385c <_write+0x28>

0000000000013884 <_conv_stat>:
   13884:	0005b383          	ld	t2,0(a1)
   13888:	0085b283          	ld	t0,8(a1)
   1388c:	0105af83          	lw	t6,16(a1)
   13890:	0145af03          	lw	t5,20(a1)
   13894:	0185ae83          	lw	t4,24(a1)
   13898:	01c5ae03          	lw	t3,28(a1)
   1389c:	0205b303          	ld	t1,32(a1)
   138a0:	0305b883          	ld	a7,48(a1)
   138a4:	0405b803          	ld	a6,64(a1)
   138a8:	0385a603          	lw	a2,56(a1)
   138ac:	0485b683          	ld	a3,72(a1)
   138b0:	0585b703          	ld	a4,88(a1)
   138b4:	0685b783          	ld	a5,104(a1)
   138b8:	00751023          	sh	t2,0(a0)
   138bc:	00551123          	sh	t0,2(a0)
   138c0:	01f52223          	sw	t6,4(a0)
   138c4:	01e51423          	sh	t5,8(a0)
   138c8:	01d51523          	sh	t4,10(a0)
   138cc:	01c51623          	sh	t3,12(a0)
   138d0:	00651723          	sh	t1,14(a0)
   138d4:	01153823          	sd	a7,16(a0)
   138d8:	05053823          	sd	a6,80(a0)
   138dc:	04c53423          	sd	a2,72(a0)
   138e0:	00d53c23          	sd	a3,24(a0)
   138e4:	02e53423          	sd	a4,40(a0)
   138e8:	02f53c23          	sd	a5,56(a0)
   138ec:	00008067          	ret

00000000000138f0 <__errno>:
   138f0:	76018793          	addi	a5,gp,1888 # 15a98 <_impure_ptr>
   138f4:	0007b503          	ld	a0,0(a5)
   138f8:	00008067          	ret

00000000000138fc <__muldi3>:
   138fc:	00050613          	mv	a2,a0
   13900:	00000513          	li	a0,0
   13904:	0015f693          	andi	a3,a1,1
   13908:	00068463          	beqz	a3,13910 <__muldi3+0x14>
   1390c:	00c50533          	add	a0,a0,a2
   13910:	0015d593          	srli	a1,a1,0x1
   13914:	00161613          	slli	a2,a2,0x1
   13918:	fe0596e3          	bnez	a1,13904 <__muldi3+0x8>
   1391c:	00008067          	ret

0000000000013920 <__udivsi3>:
   13920:	02051513          	slli	a0,a0,0x20
   13924:	02059593          	slli	a1,a1,0x20
   13928:	00008293          	mv	t0,ra
   1392c:	03c000ef          	jal	ra,13968 <__udivdi3>
   13930:	0005051b          	sext.w	a0,a0
   13934:	00028067          	jr	t0 # 105cc <memset+0xb4>

0000000000013938 <__umodsi3>:
   13938:	02051513          	slli	a0,a0,0x20
   1393c:	02059593          	slli	a1,a1,0x20
   13940:	02055513          	srli	a0,a0,0x20
   13944:	0205d593          	srli	a1,a1,0x20
   13948:	00008293          	mv	t0,ra
   1394c:	01c000ef          	jal	ra,13968 <__udivdi3>
   13950:	0005851b          	sext.w	a0,a1
   13954:	00028067          	jr	t0

0000000000013958 <__divsi3>:
   13958:	fff00293          	li	t0,-1
   1395c:	0a558c63          	beq	a1,t0,13a14 <__moddi3+0x30>

0000000000013960 <__divdi3>:
   13960:	06054063          	bltz	a0,139c0 <__umoddi3+0x10>
   13964:	0605c663          	bltz	a1,139d0 <__umoddi3+0x20>

0000000000013968 <__udivdi3>:
   13968:	00058613          	mv	a2,a1
   1396c:	00050593          	mv	a1,a0
   13970:	fff00513          	li	a0,-1
   13974:	02060c63          	beqz	a2,139ac <__udivdi3+0x44>
   13978:	00100693          	li	a3,1
   1397c:	00b67a63          	bgeu	a2,a1,13990 <__udivdi3+0x28>
   13980:	00c05863          	blez	a2,13990 <__udivdi3+0x28>
   13984:	00161613          	slli	a2,a2,0x1
   13988:	00169693          	slli	a3,a3,0x1
   1398c:	feb66ae3          	bltu	a2,a1,13980 <__udivdi3+0x18>
   13990:	00000513          	li	a0,0
   13994:	00c5e663          	bltu	a1,a2,139a0 <__udivdi3+0x38>
   13998:	40c585b3          	sub	a1,a1,a2
   1399c:	00d56533          	or	a0,a0,a3
   139a0:	0016d693          	srli	a3,a3,0x1
   139a4:	00165613          	srli	a2,a2,0x1
   139a8:	fe0696e3          	bnez	a3,13994 <__udivdi3+0x2c>
   139ac:	00008067          	ret

00000000000139b0 <__umoddi3>:
   139b0:	00008293          	mv	t0,ra
   139b4:	fb5ff0ef          	jal	ra,13968 <__udivdi3>
   139b8:	00058513          	mv	a0,a1
   139bc:	00028067          	jr	t0
   139c0:	40a00533          	neg	a0,a0
   139c4:	0005d863          	bgez	a1,139d4 <__umoddi3+0x24>
   139c8:	40b005b3          	neg	a1,a1
   139cc:	f9dff06f          	j	13968 <__udivdi3>
   139d0:	40b005b3          	neg	a1,a1
   139d4:	00008293          	mv	t0,ra
   139d8:	f91ff0ef          	jal	ra,13968 <__udivdi3>
   139dc:	40a00533          	neg	a0,a0
   139e0:	00028067          	jr	t0

00000000000139e4 <__moddi3>:
   139e4:	00008293          	mv	t0,ra
   139e8:	0005ca63          	bltz	a1,139fc <__moddi3+0x18>
   139ec:	00054c63          	bltz	a0,13a04 <__moddi3+0x20>
   139f0:	f79ff0ef          	jal	ra,13968 <__udivdi3>
   139f4:	00058513          	mv	a0,a1
   139f8:	00028067          	jr	t0
   139fc:	40b005b3          	neg	a1,a1
   13a00:	fe0558e3          	bgez	a0,139f0 <__moddi3+0xc>
   13a04:	40a00533          	neg	a0,a0
   13a08:	f61ff0ef          	jal	ra,13968 <__udivdi3>
   13a0c:	40b00533          	neg	a0,a1
   13a10:	00028067          	jr	t0
   13a14:	01f29293          	slli	t0,t0,0x1f
   13a18:	f45514e3          	bne	a0,t0,13960 <__divdi3>
   13a1c:	00008067          	ret